(lp0
S'MUL-PanSharpen_AOI_2_Vegas_img607.tif'
p1
aS'MUL-PanSharpen_AOI_2_Vegas_img231.tif'
p2
aS'MUL-PanSharpen_AOI_2_Vegas_img354.tif'
p3
aS'MUL-PanSharpen_AOI_2_Vegas_img1267.tif'
p4
aS'MUL-PanSharpen_AOI_2_Vegas_img335.tif'
p5
aS'MUL-PanSharpen_AOI_2_Vegas_img343.tif'
p6
aS'MUL-PanSharpen_AOI_2_Vegas_img15.tif'
p7
aS'MUL-PanSharpen_AOI_2_Vegas_img469.tif'
p8
aS'MUL-PanSharpen_AOI_2_Vegas_img1632.tif'
p9
aS'MUL-PanSharpen_AOI_2_Vegas_img161.tif'
p10
aS'MUL-PanSharpen_AOI_2_Vegas_img1149.tif'
p11
aS'MUL-PanSharpen_AOI_2_Vegas_img1533.tif'
p12
aS'MUL-PanSharpen_AOI_2_Vegas_img542.tif'
p13
aS'MUL-PanSharpen_AOI_2_Vegas_img52.tif'
p14
aS'MUL-PanSharpen_AOI_2_Vegas_img1110.tif'
p15
aS'MUL-PanSharpen_AOI_2_Vegas_img556.tif'
p16
aS'MUL-PanSharpen_AOI_2_Vegas_img658.tif'
p17
aS'MUL-PanSharpen_AOI_2_Vegas_img604.tif'
p18
aS'MUL-PanSharpen_AOI_2_Vegas_img586.tif'
p19
aS'MUL-PanSharpen_AOI_2_Vegas_img150.tif'
p20
aS'MUL-PanSharpen_AOI_2_Vegas_img419.tif'
p21
aS'MUL-PanSharpen_AOI_2_Vegas_img64.tif'
p22
aS'MUL-PanSharpen_AOI_2_Vegas_img1374.tif'
p23
aS'MUL-PanSharpen_AOI_2_Vegas_img554.tif'
p24
aS'MUL-PanSharpen_AOI_2_Vegas_img1586.tif'
p25
aS'MUL-PanSharpen_AOI_2_Vegas_img1086.tif'
p26
aS'MUL-PanSharpen_AOI_2_Vegas_img550.tif'
p27
aS'MUL-PanSharpen_AOI_2_Vegas_img1176.tif'
p28
aS'MUL-PanSharpen_AOI_2_Vegas_img814.tif'
p29
aS'MUL-PanSharpen_AOI_2_Vegas_img1397.tif'
p30
aS'MUL-PanSharpen_AOI_2_Vegas_img321.tif'
p31
aS'MUL-PanSharpen_AOI_2_Vegas_img1009.tif'
p32
aS'MUL-PanSharpen_AOI_2_Vegas_img822.tif'
p33
aS'MUL-PanSharpen_AOI_2_Vegas_img1601.tif'
p34
aS'MUL-PanSharpen_AOI_2_Vegas_img564.tif'
p35
aS'MUL-PanSharpen_AOI_2_Vegas_img1361.tif'
p36
aS'MUL-PanSharpen_AOI_2_Vegas_img6.tif'
p37
aS'MUL-PanSharpen_AOI_2_Vegas_img754.tif'
p38
aS'MUL-PanSharpen_AOI_2_Vegas_img1566.tif'
p39
aS'MUL-PanSharpen_AOI_2_Vegas_img1624.tif'
p40
aS'MUL-PanSharpen_AOI_2_Vegas_img910.tif'
p41
aS'MUL-PanSharpen_AOI_2_Vegas_img729.tif'
p42
aS'MUL-PanSharpen_AOI_2_Vegas_img826.tif'
p43
aS'MUL-PanSharpen_AOI_2_Vegas_img1445.tif'
p44
aS'MUL-PanSharpen_AOI_2_Vegas_img1178.tif'
p45
aS'MUL-PanSharpen_AOI_2_Vegas_img1537.tif'
p46
aS'MUL-PanSharpen_AOI_2_Vegas_img618.tif'
p47
aS'MUL-PanSharpen_AOI_2_Vegas_img1198.tif'
p48
aS'MUL-PanSharpen_AOI_2_Vegas_img62.tif'
p49
aS'MUL-PanSharpen_AOI_2_Vegas_img336.tif'
p50
aS'MUL-PanSharpen_AOI_2_Vegas_img647.tif'
p51
aS'MUL-PanSharpen_AOI_2_Vegas_img1175.tif'
p52
aS'MUL-PanSharpen_AOI_2_Vegas_img651.tif'
p53
aS'MUL-PanSharpen_AOI_2_Vegas_img54.tif'
p54
aS'MUL-PanSharpen_AOI_2_Vegas_img1451.tif'
p55
aS'MUL-PanSharpen_AOI_2_Vegas_img24.tif'
p56
aS'MUL-PanSharpen_AOI_2_Vegas_img868.tif'
p57
aS'MUL-PanSharpen_AOI_2_Vegas_img1470.tif'
p58
aS'MUL-PanSharpen_AOI_2_Vegas_img170.tif'
p59
aS'MUL-PanSharpen_AOI_2_Vegas_img974.tif'
p60
aS'MUL-PanSharpen_AOI_2_Vegas_img624.tif'
p61
aS'MUL-PanSharpen_AOI_2_Vegas_img894.tif'
p62
aS'MUL-PanSharpen_AOI_2_Vegas_img1593.tif'
p63
aS'MUL-PanSharpen_AOI_2_Vegas_img887.tif'
p64
aS'MUL-PanSharpen_AOI_2_Vegas_img70.tif'
p65
aS'MUL-PanSharpen_AOI_2_Vegas_img1441.tif'
p66
aS'MUL-PanSharpen_AOI_2_Vegas_img1641.tif'
p67
aS'MUL-PanSharpen_AOI_2_Vegas_img227.tif'
p68
aS'MUL-PanSharpen_AOI_2_Vegas_img599.tif'
p69
aS'MUL-PanSharpen_AOI_2_Vegas_img14.tif'
p70
aS'MUL-PanSharpen_AOI_2_Vegas_img9.tif'
p71
aS'MUL-PanSharpen_AOI_2_Vegas_img1414.tif'
p72
aS'MUL-PanSharpen_AOI_2_Vegas_img1045.tif'
p73
aS'MUL-PanSharpen_AOI_2_Vegas_img58.tif'
p74
aS'MUL-PanSharpen_AOI_2_Vegas_img37.tif'
p75
aS'MUL-PanSharpen_AOI_2_Vegas_img856.tif'
p76
aS'MUL-PanSharpen_AOI_2_Vegas_img1011.tif'
p77
aS'MUL-PanSharpen_AOI_2_Vegas_img1193.tif'
p78
aS'MUL-PanSharpen_AOI_2_Vegas_img522.tif'
p79
aS'MUL-PanSharpen_AOI_2_Vegas_img1191.tif'
p80
aS'MUL-PanSharpen_AOI_2_Vegas_img1428.tif'
p81
aS'MUL-PanSharpen_AOI_2_Vegas_img329.tif'
p82
aS'MUL-PanSharpen_AOI_2_Vegas_img613.tif'
p83
aS'MUL-PanSharpen_AOI_2_Vegas_img1124.tif'
p84
aS'MUL-PanSharpen_AOI_2_Vegas_img122.tif'
p85
aS'MUL-PanSharpen_AOI_2_Vegas_img43.tif'
p86
aS'MUL-PanSharpen_AOI_2_Vegas_img1375.tif'
p87
aS'MUL-PanSharpen_AOI_2_Vegas_img605.tif'
p88
aS'MUL-PanSharpen_AOI_2_Vegas_img1489.tif'
p89
aS'MUL-PanSharpen_AOI_2_Vegas_img773.tif'
p90
aS'MUL-PanSharpen_AOI_2_Vegas_img953.tif'
p91
aS'MUL-PanSharpen_AOI_2_Vegas_img1152.tif'
p92
aS'MUL-PanSharpen_AOI_2_Vegas_img1210.tif'
p93
aS'MUL-PanSharpen_AOI_2_Vegas_img1531.tif'
p94
aS'MUL-PanSharpen_AOI_2_Vegas_img1459.tif'
p95
aS'MUL-PanSharpen_AOI_2_Vegas_img959.tif'
p96
aS'MUL-PanSharpen_AOI_2_Vegas_img367.tif'
p97
aS'MUL-PanSharpen_AOI_2_Vegas_img1204.tif'
p98
aS'MUL-PanSharpen_AOI_2_Vegas_img1274.tif'
p99
aS'MUL-PanSharpen_AOI_2_Vegas_img386.tif'
p100
aS'MUL-PanSharpen_AOI_2_Vegas_img21.tif'
p101
aS'MUL-PanSharpen_AOI_2_Vegas_img1301.tif'
p102
aS'MUL-PanSharpen_AOI_2_Vegas_img1503.tif'
p103
aS'MUL-PanSharpen_AOI_2_Vegas_img893.tif'
p104
aS'MUL-PanSharpen_AOI_2_Vegas_img67.tif'
p105
aS'MUL-PanSharpen_AOI_2_Vegas_img265.tif'
p106
aS'MUL-PanSharpen_AOI_2_Vegas_img1416.tif'
p107
aS'MUL-PanSharpen_AOI_2_Vegas_img994.tif'
p108
aS'MUL-PanSharpen_AOI_2_Vegas_img1364.tif'
p109
aS'MUL-PanSharpen_AOI_2_Vegas_img1644.tif'
p110
aS'MUL-PanSharpen_AOI_2_Vegas_img1320.tif'
p111
aS'MUL-PanSharpen_AOI_2_Vegas_img1464.tif'
p112
aS'MUL-PanSharpen_AOI_2_Vegas_img1405.tif'
p113
aS'MUL-PanSharpen_AOI_2_Vegas_img1555.tif'
p114
aS'MUL-PanSharpen_AOI_2_Vegas_img1446.tif'
p115
aS'MUL-PanSharpen_AOI_2_Vegas_img1010.tif'
p116
aS'MUL-PanSharpen_AOI_2_Vegas_img1233.tif'
p117
aS'MUL-PanSharpen_AOI_2_Vegas_img1341.tif'
p118
aS'MUL-PanSharpen_AOI_2_Vegas_img876.tif'
p119
aS'MUL-PanSharpen_AOI_2_Vegas_img860.tif'
p120
aS'MUL-PanSharpen_AOI_2_Vegas_img146.tif'
p121
aS'MUL-PanSharpen_AOI_2_Vegas_img215.tif'
p122
aS'MUL-PanSharpen_AOI_2_Vegas_img220.tif'
p123
aS'MUL-PanSharpen_AOI_2_Vegas_img187.tif'
p124
aS'MUL-PanSharpen_AOI_2_Vegas_img1337.tif'
p125
aS'MUL-PanSharpen_AOI_2_Vegas_img715.tif'
p126
aS'MUL-PanSharpen_AOI_2_Vegas_img138.tif'
p127
aS'MUL-PanSharpen_AOI_2_Vegas_img1016.tif'
p128
aS'MUL-PanSharpen_AOI_2_Vegas_img1353.tif'
p129
aS'MUL-PanSharpen_AOI_2_Vegas_img692.tif'
p130
aS'MUL-PanSharpen_AOI_2_Vegas_img1621.tif'
p131
aS'MUL-PanSharpen_AOI_2_Vegas_img1157.tif'
p132
aS'MUL-PanSharpen_AOI_2_Vegas_img1143.tif'
p133
aS'MUL-PanSharpen_AOI_2_Vegas_img987.tif'
p134
aS'MUL-PanSharpen_AOI_2_Vegas_img86.tif'
p135
aS'MUL-PanSharpen_AOI_2_Vegas_img1192.tif'
p136
aS'MUL-PanSharpen_AOI_2_Vegas_img18.tif'
p137
aS'MUL-PanSharpen_AOI_2_Vegas_img1057.tif'
p138
aS'MUL-PanSharpen_AOI_2_Vegas_img1102.tif'
p139
aS'MUL-PanSharpen_AOI_2_Vegas_img713.tif'
p140
aS'MUL-PanSharpen_AOI_2_Vegas_img1429.tif'
p141
aS'MUL-PanSharpen_AOI_2_Vegas_img1611.tif'
p142
aS'MUL-PanSharpen_AOI_2_Vegas_img691.tif'
p143
aS'MUL-PanSharpen_AOI_2_Vegas_img1280.tif'
p144
aS'MUL-PanSharpen_AOI_2_Vegas_img468.tif'
p145
aS'MUL-PanSharpen_AOI_2_Vegas_img1440.tif'
p146
aS'MUL-PanSharpen_AOI_2_Vegas_img1053.tif'
p147
aS'MUL-PanSharpen_AOI_2_Vegas_img932.tif'
p148
aS'MUL-PanSharpen_AOI_2_Vegas_img446.tif'
p149
aS'MUL-PanSharpen_AOI_2_Vegas_img1571.tif'
p150
aS'MUL-PanSharpen_AOI_2_Vegas_img98.tif'
p151
aS'MUL-PanSharpen_AOI_2_Vegas_img377.tif'
p152
aS'MUL-PanSharpen_AOI_2_Vegas_img1019.tif'
p153
aS'MUL-PanSharpen_AOI_2_Vegas_img958.tif'
p154
aS'MUL-PanSharpen_AOI_2_Vegas_img484.tif'
p155
aS'MUL-PanSharpen_AOI_2_Vegas_img1247.tif'
p156
aS'MUL-PanSharpen_AOI_2_Vegas_img946.tif'
p157
aS'MUL-PanSharpen_AOI_2_Vegas_img634.tif'
p158
aS'MUL-PanSharpen_AOI_2_Vegas_img1510.tif'
p159
aS'MUL-PanSharpen_AOI_2_Vegas_img539.tif'
p160
aS'MUL-PanSharpen_AOI_2_Vegas_img180.tif'
p161
aS'MUL-PanSharpen_AOI_2_Vegas_img1087.tif'
p162
aS'MUL-PanSharpen_AOI_2_Vegas_img791.tif'
p163
aS'MUL-PanSharpen_AOI_2_Vegas_img1067.tif'
p164
aS'MUL-PanSharpen_AOI_2_Vegas_img733.tif'
p165
aS'MUL-PanSharpen_AOI_2_Vegas_img1179.tif'
p166
aS'MUL-PanSharpen_AOI_2_Vegas_img359.tif'
p167
aS'MUL-PanSharpen_AOI_2_Vegas_img827.tif'
p168
aS'MUL-PanSharpen_AOI_2_Vegas_img1189.tif'
p169
aS'MUL-PanSharpen_AOI_2_Vegas_img1585.tif'
p170
aS'MUL-PanSharpen_AOI_2_Vegas_img236.tif'
p171
aS'MUL-PanSharpen_AOI_2_Vegas_img935.tif'
p172
aS'MUL-PanSharpen_AOI_2_Vegas_img672.tif'
p173
aS'MUL-PanSharpen_AOI_2_Vegas_img1547.tif'
p174
aS'MUL-PanSharpen_AOI_2_Vegas_img1048.tif'
p175
aS'MUL-PanSharpen_AOI_2_Vegas_img675.tif'
p176
aS'MUL-PanSharpen_AOI_2_Vegas_img566.tif'
p177
aS'MUL-PanSharpen_AOI_2_Vegas_img1647.tif'
p178
aS'MUL-PanSharpen_AOI_2_Vegas_img1597.tif'
p179
aS'MUL-PanSharpen_AOI_2_Vegas_img1478.tif'
p180
aS'MUL-PanSharpen_AOI_2_Vegas_img976.tif'
p181
aS'MUL-PanSharpen_AOI_2_Vegas_img1069.tif'
p182
aS'MUL-PanSharpen_AOI_2_Vegas_img951.tif'
p183
aS'MUL-PanSharpen_AOI_2_Vegas_img1264.tif'
p184
aS'MUL-PanSharpen_AOI_2_Vegas_img875.tif'
p185
aS'MUL-PanSharpen_AOI_2_Vegas_img1215.tif'
p186
aS'MUL-PanSharpen_AOI_2_Vegas_img1342.tif'
p187
aS'MUL-PanSharpen_AOI_2_Vegas_img1471.tif'
p188
aS'MUL-PanSharpen_AOI_2_Vegas_img751.tif'
p189
aS'MUL-PanSharpen_AOI_2_Vegas_img1256.tif'
p190
aS'MUL-PanSharpen_AOI_2_Vegas_img562.tif'
p191
aS'MUL-PanSharpen_AOI_2_Vegas_img1056.tif'
p192
aS'MUL-PanSharpen_AOI_2_Vegas_img1388.tif'
p193
aS'MUL-PanSharpen_AOI_2_Vegas_img320.tif'
p194
aS'MUL-PanSharpen_AOI_2_Vegas_img1447.tif'
p195
aS'MUL-PanSharpen_AOI_2_Vegas_img681.tif'
p196
aS'MUL-PanSharpen_AOI_2_Vegas_img789.tif'
p197
aS'MUL-PanSharpen_AOI_2_Vegas_img886.tif'
p198
aS'MUL-PanSharpen_AOI_2_Vegas_img304.tif'
p199
aS'MUL-PanSharpen_AOI_2_Vegas_img1572.tif'
p200
aS'MUL-PanSharpen_AOI_2_Vegas_img500.tif'
p201
aS'MUL-PanSharpen_AOI_2_Vegas_img1582.tif'
p202
aS'MUL-PanSharpen_AOI_2_Vegas_img476.tif'
p203
aS'MUL-PanSharpen_AOI_2_Vegas_img1220.tif'
p204
aS'MUL-PanSharpen_AOI_2_Vegas_img930.tif'
p205
aS'MUL-PanSharpen_AOI_2_Vegas_img1610.tif'
p206
aS'MUL-PanSharpen_AOI_2_Vegas_img16.tif'
p207
aS'MUL-PanSharpen_AOI_2_Vegas_img666.tif'
p208
aS'MUL-PanSharpen_AOI_2_Vegas_img620.tif'
p209
aS'MUL-PanSharpen_AOI_2_Vegas_img981.tif'
p210
aS'MUL-PanSharpen_AOI_2_Vegas_img242.tif'
p211
aS'MUL-PanSharpen_AOI_2_Vegas_img1046.tif'
p212
aS'MUL-PanSharpen_AOI_2_Vegas_img1021.tif'
p213
aS'MUL-PanSharpen_AOI_2_Vegas_img512.tif'
p214
aS'MUL-PanSharpen_AOI_2_Vegas_img796.tif'
p215
aS'MUL-PanSharpen_AOI_2_Vegas_img1138.tif'
p216
aS'MUL-PanSharpen_AOI_2_Vegas_img859.tif'
p217
aS'MUL-PanSharpen_AOI_2_Vegas_img1357.tif'
p218
aS'MUL-PanSharpen_AOI_2_Vegas_img1550.tif'
p219
aS'MUL-PanSharpen_AOI_2_Vegas_img382.tif'
p220
aS'MUL-PanSharpen_AOI_2_Vegas_img975.tif'
p221
aS'MUL-PanSharpen_AOI_2_Vegas_img1544.tif'
p222
aS'MUL-PanSharpen_AOI_2_Vegas_img1387.tif'
p223
aS'MUL-PanSharpen_AOI_2_Vegas_img1452.tif'
p224
aS'MUL-PanSharpen_AOI_2_Vegas_img1216.tif'
p225
aS'MUL-PanSharpen_AOI_2_Vegas_img1133.tif'
p226
aS'MUL-PanSharpen_AOI_2_Vegas_img1005.tif'
p227
aS'MUL-PanSharpen_AOI_2_Vegas_img872.tif'
p228
aS'MUL-PanSharpen_AOI_2_Vegas_img585.tif'
p229
aS'MUL-PanSharpen_AOI_2_Vegas_img567.tif'
p230
aS'MUL-PanSharpen_AOI_2_Vegas_img232.tif'
p231
aS'MUL-PanSharpen_AOI_2_Vegas_img101.tif'
p232
aS'MUL-PanSharpen_AOI_2_Vegas_img1276.tif'
p233
aS'MUL-PanSharpen_AOI_2_Vegas_img1114.tif'
p234
aS'MUL-PanSharpen_AOI_2_Vegas_img195.tif'
p235
aS'MUL-PanSharpen_AOI_2_Vegas_img338.tif'
p236
aS'MUL-PanSharpen_AOI_2_Vegas_img430.tif'
p237
aS'MUL-PanSharpen_AOI_2_Vegas_img840.tif'
p238
aS'MUL-PanSharpen_AOI_2_Vegas_img1153.tif'
p239
aS'MUL-PanSharpen_AOI_2_Vegas_img742.tif'
p240
aS'MUL-PanSharpen_AOI_2_Vegas_img388.tif'
p241
aS'MUL-PanSharpen_AOI_2_Vegas_img152.tif'
p242
aS'MUL-PanSharpen_AOI_2_Vegas_img1188.tif'
p243
aS'MUL-PanSharpen_AOI_2_Vegas_img251.tif'
p244
aS'MUL-PanSharpen_AOI_2_Vegas_img462.tif'
p245
aS'MUL-PanSharpen_AOI_2_Vegas_img1151.tif'
p246
aS'MUL-PanSharpen_AOI_2_Vegas_img370.tif'
p247
aS'MUL-PanSharpen_AOI_2_Vegas_img606.tif'
p248
aS'MUL-PanSharpen_AOI_2_Vegas_img1509.tif'
p249
aS'MUL-PanSharpen_AOI_2_Vegas_img1481.tif'
p250
aS'MUL-PanSharpen_AOI_2_Vegas_img181.tif'
p251
aS'MUL-PanSharpen_AOI_2_Vegas_img821.tif'
p252
aS'MUL-PanSharpen_AOI_2_Vegas_img1218.tif'
p253
aS'MUL-PanSharpen_AOI_2_Vegas_img590.tif'
p254
aS'MUL-PanSharpen_AOI_2_Vegas_img464.tif'
p255
aS'MUL-PanSharpen_AOI_2_Vegas_img140.tif'
p256
aS'MUL-PanSharpen_AOI_2_Vegas_img427.tif'
p257
aS'MUL-PanSharpen_AOI_2_Vegas_img662.tif'
p258
aS'MUL-PanSharpen_AOI_2_Vegas_img1532.tif'
p259
aS'MUL-PanSharpen_AOI_2_Vegas_img1245.tif'
p260
aS'MUL-PanSharpen_AOI_2_Vegas_img439.tif'
p261
aS'MUL-PanSharpen_AOI_2_Vegas_img393.tif'
p262
aS'MUL-PanSharpen_AOI_2_Vegas_img185.tif'
p263
aS'MUL-PanSharpen_AOI_2_Vegas_img1350.tif'
p264
aS'MUL-PanSharpen_AOI_2_Vegas_img1285.tif'
p265
aS'MUL-PanSharpen_AOI_2_Vegas_img938.tif'
p266
aS'MUL-PanSharpen_AOI_2_Vegas_img1134.tif'
p267
aS'MUL-PanSharpen_AOI_2_Vegas_img996.tif'
p268
aS'MUL-PanSharpen_AOI_2_Vegas_img914.tif'
p269
aS'MUL-PanSharpen_AOI_2_Vegas_img1437.tif'
p270
aS'MUL-PanSharpen_AOI_2_Vegas_img1278.tif'
p271
aS'MUL-PanSharpen_AOI_2_Vegas_img303.tif'
p272
aS'MUL-PanSharpen_AOI_2_Vegas_img1239.tif'
p273
aS'MUL-PanSharpen_AOI_2_Vegas_img1558.tif'
p274
aS'MUL-PanSharpen_AOI_2_Vegas_img135.tif'
p275
aS'MUL-PanSharpen_AOI_2_Vegas_img97.tif'
p276
aS'MUL-PanSharpen_AOI_2_Vegas_img1365.tif'
p277
aS'MUL-PanSharpen_AOI_2_Vegas_img348.tif'
p278
aS'MUL-PanSharpen_AOI_2_Vegas_img137.tif'
p279
aS'MUL-PanSharpen_AOI_2_Vegas_img854.tif'
p280
aS'MUL-PanSharpen_AOI_2_Vegas_img756.tif'
p281
aS'MUL-PanSharpen_AOI_2_Vegas_img123.tif'
p282
aS'MUL-PanSharpen_AOI_2_Vegas_img1507.tif'
p283
aS'MUL-PanSharpen_AOI_2_Vegas_img1625.tif'
p284
aS'MUL-PanSharpen_AOI_2_Vegas_img857.tif'
p285
aS'MUL-PanSharpen_AOI_2_Vegas_img523.tif'
p286
aS'MUL-PanSharpen_AOI_2_Vegas_img569.tif'
p287
aS'MUL-PanSharpen_AOI_2_Vegas_img668.tif'
p288
aS'MUL-PanSharpen_AOI_2_Vegas_img1378.tif'
p289
aS'MUL-PanSharpen_AOI_2_Vegas_img778.tif'
p290
aS'MUL-PanSharpen_AOI_2_Vegas_img260.tif'
p291
aS'MUL-PanSharpen_AOI_2_Vegas_img819.tif'
p292
aS'MUL-PanSharpen_AOI_2_Vegas_img1127.tif'
p293
aS'MUL-PanSharpen_AOI_2_Vegas_img1480.tif'
p294
aS'MUL-PanSharpen_AOI_2_Vegas_img127.tif'
p295
aS'MUL-PanSharpen_AOI_2_Vegas_img1340.tif'
p296
aS'MUL-PanSharpen_AOI_2_Vegas_img1217.tif'
p297
aS'MUL-PanSharpen_AOI_2_Vegas_img400.tif'
p298
aS'MUL-PanSharpen_AOI_2_Vegas_img196.tif'
p299
aS'MUL-PanSharpen_AOI_2_Vegas_img727.tif'
p300
aS'MUL-PanSharpen_AOI_2_Vegas_img755.tif'
p301
aS'MUL-PanSharpen_AOI_2_Vegas_img992.tif'
p302
aS'MUL-PanSharpen_AOI_2_Vegas_img23.tif'
p303
aS'MUL-PanSharpen_AOI_2_Vegas_img1094.tif'
p304
aS'MUL-PanSharpen_AOI_2_Vegas_img774.tif'
p305
aS'MUL-PanSharpen_AOI_2_Vegas_img906.tif'
p306
aS'MUL-PanSharpen_AOI_2_Vegas_img112.tif'
p307
aS'MUL-PanSharpen_AOI_2_Vegas_img942.tif'
p308
aS'MUL-PanSharpen_AOI_2_Vegas_img784.tif'
p309
aS'MUL-PanSharpen_AOI_2_Vegas_img226.tif'
p310
aS'MUL-PanSharpen_AOI_2_Vegas_img1352.tif'
p311
aS'MUL-PanSharpen_AOI_2_Vegas_img1246.tif'
p312
aS'MUL-PanSharpen_AOI_2_Vegas_img1499.tif'
p313
aS'MUL-PanSharpen_AOI_2_Vegas_img966.tif'
p314
aS'MUL-PanSharpen_AOI_2_Vegas_img179.tif'
p315
aS'MUL-PanSharpen_AOI_2_Vegas_img723.tif'
p316
aS'MUL-PanSharpen_AOI_2_Vegas_img281.tif'
p317
aS'MUL-PanSharpen_AOI_2_Vegas_img526.tif'
p318
aS'MUL-PanSharpen_AOI_2_Vegas_img1468.tif'
p319
aS'MUL-PanSharpen_AOI_2_Vegas_img741.tif'
p320
aS'MUL-PanSharpen_AOI_2_Vegas_img84.tif'
p321
aS'MUL-PanSharpen_AOI_2_Vegas_img1163.tif'
p322
aS'MUL-PanSharpen_AOI_2_Vegas_img1475.tif'
p323
aS'MUL-PanSharpen_AOI_2_Vegas_img801.tif'
p324
aS'MUL-PanSharpen_AOI_2_Vegas_img1120.tif'
p325
aS'MUL-PanSharpen_AOI_2_Vegas_img1242.tif'
p326
aS'MUL-PanSharpen_AOI_2_Vegas_img253.tif'
p327
aS'MUL-PanSharpen_AOI_2_Vegas_img785.tif'
p328
aS'MUL-PanSharpen_AOI_2_Vegas_img1436.tif'
p329
aS'MUL-PanSharpen_AOI_2_Vegas_img1060.tif'
p330
a.