(lp0
S'MUL-PanSharpen_AOI_2_Vegas_img264.tif'
p1
aS'MUL-PanSharpen_AOI_2_Vegas_img1068.tif'
p2
aS'MUL-PanSharpen_AOI_2_Vegas_img812.tif'
p3
aS'MUL-PanSharpen_AOI_2_Vegas_img1622.tif'
p4
aS'MUL-PanSharpen_AOI_2_Vegas_img690.tif'
p5
aS'MUL-PanSharpen_AOI_2_Vegas_img297.tif'
p6
aS'MUL-PanSharpen_AOI_2_Vegas_img978.tif'
p7
aS'MUL-PanSharpen_AOI_2_Vegas_img802.tif'
p8
aS'MUL-PanSharpen_AOI_2_Vegas_img1089.tif'
p9
aS'MUL-PanSharpen_AOI_2_Vegas_img378.tif'
p10
aS'MUL-PanSharpen_AOI_2_Vegas_img867.tif'
p11
aS'MUL-PanSharpen_AOI_2_Vegas_img1222.tif'
p12
aS'MUL-PanSharpen_AOI_2_Vegas_img889.tif'
p13
aS'MUL-PanSharpen_AOI_2_Vegas_img1050.tif'
p14
aS'MUL-PanSharpen_AOI_2_Vegas_img1402.tif'
p15
aS'MUL-PanSharpen_AOI_2_Vegas_img414.tif'
p16
aS'MUL-PanSharpen_AOI_2_Vegas_img843.tif'
p17
aS'MUL-PanSharpen_AOI_2_Vegas_img1627.tif'
p18
aS'MUL-PanSharpen_AOI_2_Vegas_img853.tif'
p19
aS'MUL-PanSharpen_AOI_2_Vegas_img448.tif'
p20
aS'MUL-PanSharpen_AOI_2_Vegas_img670.tif'
p21
aS'MUL-PanSharpen_AOI_2_Vegas_img276.tif'
p22
aS'MUL-PanSharpen_AOI_2_Vegas_img960.tif'
p23
aS'MUL-PanSharpen_AOI_2_Vegas_img41.tif'
p24
aS'MUL-PanSharpen_AOI_2_Vegas_img686.tif'
p25
aS'MUL-PanSharpen_AOI_2_Vegas_img1348.tif'
p26
aS'MUL-PanSharpen_AOI_2_Vegas_img982.tif'
p27
aS'MUL-PanSharpen_AOI_2_Vegas_img888.tif'
p28
aS'MUL-PanSharpen_AOI_2_Vegas_img324.tif'
p29
aS'MUL-PanSharpen_AOI_2_Vegas_img578.tif'
p30
aS'MUL-PanSharpen_AOI_2_Vegas_img1092.tif'
p31
aS'MUL-PanSharpen_AOI_2_Vegas_img495.tif'
p32
aS'MUL-PanSharpen_AOI_2_Vegas_img394.tif'
p33
aS'MUL-PanSharpen_AOI_2_Vegas_img693.tif'
p34
aS'MUL-PanSharpen_AOI_2_Vegas_img244.tif'
p35
aS'MUL-PanSharpen_AOI_2_Vegas_img1578.tif'
p36
aS'MUL-PanSharpen_AOI_2_Vegas_img629.tif'
p37
aS'MUL-PanSharpen_AOI_2_Vegas_img360.tif'
p38
aS'MUL-PanSharpen_AOI_2_Vegas_img240.tif'
p39
aS'MUL-PanSharpen_AOI_2_Vegas_img1331.tif'
p40
aS'MUL-PanSharpen_AOI_2_Vegas_img877.tif'
p41
aS'MUL-PanSharpen_AOI_2_Vegas_img948.tif'
p42
aS'MUL-PanSharpen_AOI_2_Vegas_img311.tif'
p43
aS'MUL-PanSharpen_AOI_2_Vegas_img42.tif'
p44
aS'MUL-PanSharpen_AOI_2_Vegas_img380.tif'
p45
aS'MUL-PanSharpen_AOI_2_Vegas_img1025.tif'
p46
aS'MUL-PanSharpen_AOI_2_Vegas_img989.tif'
p47
aS'MUL-PanSharpen_AOI_2_Vegas_img44.tif'
p48
aS'MUL-PanSharpen_AOI_2_Vegas_img820.tif'
p49
aS'MUL-PanSharpen_AOI_2_Vegas_img277.tif'
p50
aS'MUL-PanSharpen_AOI_2_Vegas_img541.tif'
p51
aS'MUL-PanSharpen_AOI_2_Vegas_img1433.tif'
p52
aS'MUL-PanSharpen_AOI_2_Vegas_img1335.tif'
p53
aS'MUL-PanSharpen_AOI_2_Vegas_img517.tif'
p54
aS'MUL-PanSharpen_AOI_2_Vegas_img528.tif'
p55
aS'MUL-PanSharpen_AOI_2_Vegas_img93.tif'
p56
aS'MUL-PanSharpen_AOI_2_Vegas_img173.tif'
p57
aS'MUL-PanSharpen_AOI_2_Vegas_img10.tif'
p58
aS'MUL-PanSharpen_AOI_2_Vegas_img527.tif'
p59
aS'MUL-PanSharpen_AOI_2_Vegas_img1379.tif'
p60
aS'MUL-PanSharpen_AOI_2_Vegas_img497.tif'
p61
aS'MUL-PanSharpen_AOI_2_Vegas_img1596.tif'
p62
aS'MUL-PanSharpen_AOI_2_Vegas_img190.tif'
p63
aS'MUL-PanSharpen_AOI_2_Vegas_img206.tif'
p64
aS'MUL-PanSharpen_AOI_2_Vegas_img750.tif'
p65
aS'MUL-PanSharpen_AOI_2_Vegas_img1324.tif'
p66
aS'MUL-PanSharpen_AOI_2_Vegas_img1139.tif'
p67
aS'MUL-PanSharpen_AOI_2_Vegas_img891.tif'
p68
aS'MUL-PanSharpen_AOI_2_Vegas_img91.tif'
p69
aS'MUL-PanSharpen_AOI_2_Vegas_img553.tif'
p70
aS'MUL-PanSharpen_AOI_2_Vegas_img845.tif'
p71
aS'MUL-PanSharpen_AOI_2_Vegas_img1605.tif'
p72
aS'MUL-PanSharpen_AOI_2_Vegas_img968.tif'
p73
aS'MUL-PanSharpen_AOI_2_Vegas_img763.tif'
p74
aS'MUL-PanSharpen_AOI_2_Vegas_img915.tif'
p75
aS'MUL-PanSharpen_AOI_2_Vegas_img505.tif'
p76
aS'MUL-PanSharpen_AOI_2_Vegas_img169.tif'
p77
aS'MUL-PanSharpen_AOI_2_Vegas_img51.tif'
p78
aS'MUL-PanSharpen_AOI_2_Vegas_img290.tif'
p79
aS'MUL-PanSharpen_AOI_2_Vegas_img688.tif'
p80
aS'MUL-PanSharpen_AOI_2_Vegas_img1497.tif'
p81
aS'MUL-PanSharpen_AOI_2_Vegas_img118.tif'
p82
aS'MUL-PanSharpen_AOI_2_Vegas_img947.tif'
p83
aS'MUL-PanSharpen_AOI_2_Vegas_img683.tif'
p84
aS'MUL-PanSharpen_AOI_2_Vegas_img880.tif'
p85
aS'MUL-PanSharpen_AOI_2_Vegas_img1494.tif'
p86
aS'MUL-PanSharpen_AOI_2_Vegas_img353.tif'
p87
aS'MUL-PanSharpen_AOI_2_Vegas_img1154.tif'
p88
aS'MUL-PanSharpen_AOI_2_Vegas_img980.tif'
p89
aS'MUL-PanSharpen_AOI_2_Vegas_img752.tif'
p90
aS'MUL-PanSharpen_AOI_2_Vegas_img1076.tif'
p91
aS'MUL-PanSharpen_AOI_2_Vegas_img861.tif'
p92
aS'MUL-PanSharpen_AOI_2_Vegas_img1431.tif'
p93
aS'MUL-PanSharpen_AOI_2_Vegas_img631.tif'
p94
aS'MUL-PanSharpen_AOI_2_Vegas_img225.tif'
p95
aS'MUL-PanSharpen_AOI_2_Vegas_img653.tif'
p96
aS'MUL-PanSharpen_AOI_2_Vegas_img792.tif'
p97
aS'MUL-PanSharpen_AOI_2_Vegas_img66.tif'
p98
aS'MUL-PanSharpen_AOI_2_Vegas_img1472.tif'
p99
aS'MUL-PanSharpen_AOI_2_Vegas_img839.tif'
p100
aS'MUL-PanSharpen_AOI_2_Vegas_img444.tif'
p101
aS'MUL-PanSharpen_AOI_2_Vegas_img218.tif'
p102
aS'MUL-PanSharpen_AOI_2_Vegas_img376.tif'
p103
aS'MUL-PanSharpen_AOI_2_Vegas_img878.tif'
p104
aS'MUL-PanSharpen_AOI_2_Vegas_img575.tif'
p105
aS'MUL-PanSharpen_AOI_2_Vegas_img1108.tif'
p106
aS'MUL-PanSharpen_AOI_2_Vegas_img1580.tif'
p107
aS'MUL-PanSharpen_AOI_2_Vegas_img627.tif'
p108
aS'MUL-PanSharpen_AOI_2_Vegas_img1448.tif'
p109
aS'MUL-PanSharpen_AOI_2_Vegas_img828.tif'
p110
aS'MUL-PanSharpen_AOI_2_Vegas_img1371.tif'
p111
aS'MUL-PanSharpen_AOI_2_Vegas_img636.tif'
p112
aS'MUL-PanSharpen_AOI_2_Vegas_img1368.tif'
p113
aS'MUL-PanSharpen_AOI_2_Vegas_img131.tif'
p114
aS'MUL-PanSharpen_AOI_2_Vegas_img1333.tif'
p115
aS'MUL-PanSharpen_AOI_2_Vegas_img1200.tif'
p116
aS'MUL-PanSharpen_AOI_2_Vegas_img1483.tif'
p117
aS'MUL-PanSharpen_AOI_2_Vegas_img679.tif'
p118
aS'MUL-PanSharpen_AOI_2_Vegas_img1358.tif'
p119
aS'MUL-PanSharpen_AOI_2_Vegas_img1101.tif'
p120
aS'MUL-PanSharpen_AOI_2_Vegas_img130.tif'
p121
aS'MUL-PanSharpen_AOI_2_Vegas_img743.tif'
p122
aS'MUL-PanSharpen_AOI_2_Vegas_img908.tif'
p123
aS'MUL-PanSharpen_AOI_2_Vegas_img1187.tif'
p124
aS'MUL-PanSharpen_AOI_2_Vegas_img96.tif'
p125
aS'MUL-PanSharpen_AOI_2_Vegas_img142.tif'
p126
aS'MUL-PanSharpen_AOI_2_Vegas_img1549.tif'
p127
aS'MUL-PanSharpen_AOI_2_Vegas_img1243.tif'
p128
aS'MUL-PanSharpen_AOI_2_Vegas_img1002.tif'
p129
aS'MUL-PanSharpen_AOI_2_Vegas_img601.tif'
p130
aS'MUL-PanSharpen_AOI_2_Vegas_img133.tif'
p131
aS'MUL-PanSharpen_AOI_2_Vegas_img175.tif'
p132
aS'MUL-PanSharpen_AOI_2_Vegas_img1206.tif'
p133
aS'MUL-PanSharpen_AOI_2_Vegas_img657.tif'
p134
aS'MUL-PanSharpen_AOI_2_Vegas_img1574.tif'
p135
aS'MUL-PanSharpen_AOI_2_Vegas_img646.tif'
p136
aS'MUL-PanSharpen_AOI_2_Vegas_img1351.tif'
p137
aS'MUL-PanSharpen_AOI_2_Vegas_img1449.tif'
p138
aS'MUL-PanSharpen_AOI_2_Vegas_img397.tif'
p139
aS'MUL-PanSharpen_AOI_2_Vegas_img1319.tif'
p140
aS'MUL-PanSharpen_AOI_2_Vegas_img1407.tif'
p141
aS'MUL-PanSharpen_AOI_2_Vegas_img1391.tif'
p142
aS'MUL-PanSharpen_AOI_2_Vegas_img1141.tif'
p143
aS'MUL-PanSharpen_AOI_2_Vegas_img671.tif'
p144
aS'MUL-PanSharpen_AOI_2_Vegas_img268.tif'
p145
aS'MUL-PanSharpen_AOI_2_Vegas_img1500.tif'
p146
aS'MUL-PanSharpen_AOI_2_Vegas_img1349.tif'
p147
aS'MUL-PanSharpen_AOI_2_Vegas_img153.tif'
p148
aS'MUL-PanSharpen_AOI_2_Vegas_img1404.tif'
p149
aS'MUL-PanSharpen_AOI_2_Vegas_img479.tif'
p150
aS'MUL-PanSharpen_AOI_2_Vegas_img147.tif'
p151
aS'MUL-PanSharpen_AOI_2_Vegas_img406.tif'
p152
aS'MUL-PanSharpen_AOI_2_Vegas_img955.tif'
p153
aS'MUL-PanSharpen_AOI_2_Vegas_img374.tif'
p154
aS'MUL-PanSharpen_AOI_2_Vegas_img40.tif'
p155
aS'MUL-PanSharpen_AOI_2_Vegas_img916.tif'
p156
aS'MUL-PanSharpen_AOI_2_Vegas_img1422.tif'
p157
aS'MUL-PanSharpen_AOI_2_Vegas_img1313.tif'
p158
aS'MUL-PanSharpen_AOI_2_Vegas_img602.tif'
p159
aS'MUL-PanSharpen_AOI_2_Vegas_img1643.tif'
p160
aS'MUL-PanSharpen_AOI_2_Vegas_img1302.tif'
p161
aS'MUL-PanSharpen_AOI_2_Vegas_img931.tif'
p162
aS'MUL-PanSharpen_AOI_2_Vegas_img871.tif'
p163
aS'MUL-PanSharpen_AOI_2_Vegas_img1512.tif'
p164
aS'MUL-PanSharpen_AOI_2_Vegas_img641.tif'
p165
aS'MUL-PanSharpen_AOI_2_Vegas_img885.tif'
p166
aS'MUL-PanSharpen_AOI_2_Vegas_img1514.tif'
p167
aS'MUL-PanSharpen_AOI_2_Vegas_img660.tif'
p168
aS'MUL-PanSharpen_AOI_2_Vegas_img1326.tif'
p169
aS'MUL-PanSharpen_AOI_2_Vegas_img1424.tif'
p170
aS'MUL-PanSharpen_AOI_2_Vegas_img1238.tif'
p171
aS'MUL-PanSharpen_AOI_2_Vegas_img431.tif'
p172
aS'MUL-PanSharpen_AOI_2_Vegas_img705.tif'
p173
aS'MUL-PanSharpen_AOI_2_Vegas_img1027.tif'
p174
aS'MUL-PanSharpen_AOI_2_Vegas_img433.tif'
p175
aS'MUL-PanSharpen_AOI_2_Vegas_img1294.tif'
p176
aS'MUL-PanSharpen_AOI_2_Vegas_img1121.tif'
p177
aS'MUL-PanSharpen_AOI_2_Vegas_img1540.tif'
p178
aS'MUL-PanSharpen_AOI_2_Vegas_img258.tif'
p179
aS'MUL-PanSharpen_AOI_2_Vegas_img398.tif'
p180
aS'MUL-PanSharpen_AOI_2_Vegas_img988.tif'
p181
aS'MUL-PanSharpen_AOI_2_Vegas_img718.tif'
p182
aS'MUL-PanSharpen_AOI_2_Vegas_img1616.tif'
p183
aS'MUL-PanSharpen_AOI_2_Vegas_img255.tif'
p184
aS'MUL-PanSharpen_AOI_2_Vegas_img765.tif'
p185
aS'MUL-PanSharpen_AOI_2_Vegas_img593.tif'
p186
aS'MUL-PanSharpen_AOI_2_Vegas_img901.tif'
p187
aS'MUL-PanSharpen_AOI_2_Vegas_img99.tif'
p188
aS'MUL-PanSharpen_AOI_2_Vegas_img440.tif'
p189
aS'MUL-PanSharpen_AOI_2_Vegas_img1561.tif'
p190
aS'MUL-PanSharpen_AOI_2_Vegas_img797.tif'
p191
aS'MUL-PanSharpen_AOI_2_Vegas_img453.tif'
p192
aS'MUL-PanSharpen_AOI_2_Vegas_img188.tif'
p193
aS'MUL-PanSharpen_AOI_2_Vegas_img1284.tif'
p194
aS'MUL-PanSharpen_AOI_2_Vegas_img234.tif'
p195
aS'MUL-PanSharpen_AOI_2_Vegas_img535.tif'
p196
aS'MUL-PanSharpen_AOI_2_Vegas_img1458.tif'
p197
aS'MUL-PanSharpen_AOI_2_Vegas_img967.tif'
p198
aS'MUL-PanSharpen_AOI_2_Vegas_img1079.tif'
p199
aS'MUL-PanSharpen_AOI_2_Vegas_img1376.tif'
p200
aS'MUL-PanSharpen_AOI_2_Vegas_img815.tif'
p201
aS'MUL-PanSharpen_AOI_2_Vegas_img392.tif'
p202
aS'MUL-PanSharpen_AOI_2_Vegas_img486.tif'
p203
aS'MUL-PanSharpen_AOI_2_Vegas_img1195.tif'
p204
aS'MUL-PanSharpen_AOI_2_Vegas_img865.tif'
p205
aS'MUL-PanSharpen_AOI_2_Vegas_img201.tif'
p206
aS'MUL-PanSharpen_AOI_2_Vegas_img928.tif'
p207
aS'MUL-PanSharpen_AOI_2_Vegas_img558.tif'
p208
aS'MUL-PanSharpen_AOI_2_Vegas_img102.tif'
p209
aS'MUL-PanSharpen_AOI_2_Vegas_img1539.tif'
p210
aS'MUL-PanSharpen_AOI_2_Vegas_img1629.tif'
p211
aS'MUL-PanSharpen_AOI_2_Vegas_img1395.tif'
p212
aS'MUL-PanSharpen_AOI_2_Vegas_img342.tif'
p213
aS'MUL-PanSharpen_AOI_2_Vegas_img307.tif'
p214
aS'MUL-PanSharpen_AOI_2_Vegas_img701.tif'
p215
aS'MUL-PanSharpen_AOI_2_Vegas_img633.tif'
p216
aS'MUL-PanSharpen_AOI_2_Vegas_img1508.tif'
p217
aS'MUL-PanSharpen_AOI_2_Vegas_img924.tif'
p218
aS'MUL-PanSharpen_AOI_2_Vegas_img1355.tif'
p219
aS'MUL-PanSharpen_AOI_2_Vegas_img1103.tif'
p220
aS'MUL-PanSharpen_AOI_2_Vegas_img761.tif'
p221
aS'MUL-PanSharpen_AOI_2_Vegas_img208.tif'
p222
aS'MUL-PanSharpen_AOI_2_Vegas_img1427.tif'
p223
aS'MUL-PanSharpen_AOI_2_Vegas_img49.tif'
p224
aS'MUL-PanSharpen_AOI_2_Vegas_img722.tif'
p225
aS'MUL-PanSharpen_AOI_2_Vegas_img224.tif'
p226
aS'MUL-PanSharpen_AOI_2_Vegas_img331.tif'
p227
aS'MUL-PanSharpen_AOI_2_Vegas_img920.tif'
p228
aS'MUL-PanSharpen_AOI_2_Vegas_img1174.tif'
p229
aS'MUL-PanSharpen_AOI_2_Vegas_img849.tif'
p230
aS'MUL-PanSharpen_AOI_2_Vegas_img245.tif'
p231
aS'MUL-PanSharpen_AOI_2_Vegas_img991.tif'
p232
aS'MUL-PanSharpen_AOI_2_Vegas_img272.tif'
p233
aS'MUL-PanSharpen_AOI_2_Vegas_img1194.tif'
p234
aS'MUL-PanSharpen_AOI_2_Vegas_img474.tif'
p235
aS'MUL-PanSharpen_AOI_2_Vegas_img600.tif'
p236
aS'MUL-PanSharpen_AOI_2_Vegas_img1607.tif'
p237
aS'MUL-PanSharpen_AOI_2_Vegas_img1265.tif'
p238
aS'MUL-PanSharpen_AOI_2_Vegas_img537.tif'
p239
aS'MUL-PanSharpen_AOI_2_Vegas_img1639.tif'
p240
aS'MUL-PanSharpen_AOI_2_Vegas_img1288.tif'
p241
aS'MUL-PanSharpen_AOI_2_Vegas_img609.tif'
p242
aS'MUL-PanSharpen_AOI_2_Vegas_img154.tif'
p243
aS'MUL-PanSharpen_AOI_2_Vegas_img200.tif'
p244
aS'MUL-PanSharpen_AOI_2_Vegas_img1167.tif'
p245
aS'MUL-PanSharpen_AOI_2_Vegas_img1599.tif'
p246
aS'MUL-PanSharpen_AOI_2_Vegas_img1028.tif'
p247
aS'MUL-PanSharpen_AOI_2_Vegas_img1408.tif'
p248
aS'MUL-PanSharpen_AOI_2_Vegas_img492.tif'
p249
aS'MUL-PanSharpen_AOI_2_Vegas_img899.tif'
p250
aS'MUL-PanSharpen_AOI_2_Vegas_img869.tif'
p251
aS'MUL-PanSharpen_AOI_2_Vegas_img221.tif'
p252
aS'MUL-PanSharpen_AOI_2_Vegas_img383.tif'
p253
aS'MUL-PanSharpen_AOI_2_Vegas_img1309.tif'
p254
aS'MUL-PanSharpen_AOI_2_Vegas_img61.tif'
p255
aS'MUL-PanSharpen_AOI_2_Vegas_img552.tif'
p256
aS'MUL-PanSharpen_AOI_2_Vegas_img1432.tif'
p257
aS'MUL-PanSharpen_AOI_2_Vegas_img929.tif'
p258
aS'MUL-PanSharpen_AOI_2_Vegas_img625.tif'
p259
aS'MUL-PanSharpen_AOI_2_Vegas_img1096.tif'
p260
aS'MUL-PanSharpen_AOI_2_Vegas_img804.tif'
p261
aS'MUL-PanSharpen_AOI_2_Vegas_img237.tif'
p262
aS'MUL-PanSharpen_AOI_2_Vegas_img34.tif'
p263
aS'MUL-PanSharpen_AOI_2_Vegas_img1462.tif'
p264
aS'MUL-PanSharpen_AOI_2_Vegas_img90.tif'
p265
aS'MUL-PanSharpen_AOI_2_Vegas_img151.tif'
p266
aS'MUL-PanSharpen_AOI_2_Vegas_img1623.tif'
p267
aS'MUL-PanSharpen_AOI_2_Vegas_img167.tif'
p268
aS'MUL-PanSharpen_AOI_2_Vegas_img416.tif'
p269
aS'MUL-PanSharpen_AOI_2_Vegas_img1594.tif'
p270
aS'MUL-PanSharpen_AOI_2_Vegas_img214.tif'
p271
aS'MUL-PanSharpen_AOI_2_Vegas_img594.tif'
p272
aS'MUL-PanSharpen_AOI_2_Vegas_img770.tif'
p273
aS'MUL-PanSharpen_AOI_2_Vegas_img119.tif'
p274
aS'MUL-PanSharpen_AOI_2_Vegas_img202.tif'
p275
aS'MUL-PanSharpen_AOI_2_Vegas_img1492.tif'
p276
aS'MUL-PanSharpen_AOI_2_Vegas_img534.tif'
p277
aS'MUL-PanSharpen_AOI_2_Vegas_img1518.tif'
p278
aS'MUL-PanSharpen_AOI_2_Vegas_img1344.tif'
p279
aS'MUL-PanSharpen_AOI_2_Vegas_img1569.tif'
p280
aS'MUL-PanSharpen_AOI_2_Vegas_img628.tif'
p281
aS'MUL-PanSharpen_AOI_2_Vegas_img229.tif'
p282
aS'MUL-PanSharpen_AOI_2_Vegas_img1119.tif'
p283
aS'MUL-PanSharpen_AOI_2_Vegas_img403.tif'
p284
aS'MUL-PanSharpen_AOI_2_Vegas_img481.tif'
p285
aS'MUL-PanSharpen_AOI_2_Vegas_img603.tif'
p286
aS'MUL-PanSharpen_AOI_2_Vegas_img107.tif'
p287
aS'MUL-PanSharpen_AOI_2_Vegas_img313.tif'
p288
aS'MUL-PanSharpen_AOI_2_Vegas_img592.tif'
p289
aS'MUL-PanSharpen_AOI_2_Vegas_img368.tif'
p290
aS'MUL-PanSharpen_AOI_2_Vegas_img345.tif'
p291
aS'MUL-PanSharpen_AOI_2_Vegas_img296.tif'
p292
aS'MUL-PanSharpen_AOI_2_Vegas_img1487.tif'
p293
aS'MUL-PanSharpen_AOI_2_Vegas_img720.tif'
p294
aS'MUL-PanSharpen_AOI_2_Vegas_img1546.tif'
p295
aS'MUL-PanSharpen_AOI_2_Vegas_img402.tif'
p296
aS'MUL-PanSharpen_AOI_2_Vegas_img72.tif'
p297
aS'MUL-PanSharpen_AOI_2_Vegas_img712.tif'
p298
aS'MUL-PanSharpen_AOI_2_Vegas_img246.tif'
p299
aS'MUL-PanSharpen_AOI_2_Vegas_img747.tif'
p300
aS'MUL-PanSharpen_AOI_2_Vegas_img83.tif'
p301
aS'MUL-PanSharpen_AOI_2_Vegas_img546.tif'
p302
aS'MUL-PanSharpen_AOI_2_Vegas_img1631.tif'
p303
aS'MUL-PanSharpen_AOI_2_Vegas_img286.tif'
p304
aS'MUL-PanSharpen_AOI_2_Vegas_img399.tif'
p305
aS'MUL-PanSharpen_AOI_2_Vegas_img1523.tif'
p306
aS'MUL-PanSharpen_AOI_2_Vegas_img1224.tif'
p307
aS'MUL-PanSharpen_AOI_2_Vegas_img936.tif'
p308
aS'MUL-PanSharpen_AOI_2_Vegas_img1386.tif'
p309
aS'MUL-PanSharpen_AOI_2_Vegas_img82.tif'
p310
aS'MUL-PanSharpen_AOI_2_Vegas_img395.tif'
p311
aS'MUL-PanSharpen_AOI_2_Vegas_img1606.tif'
p312
aS'MUL-PanSharpen_AOI_2_Vegas_img458.tif'
p313
aS'MUL-PanSharpen_AOI_2_Vegas_img838.tif'
p314
aS'MUL-PanSharpen_AOI_2_Vegas_img1258.tif'
p315
aS'MUL-PanSharpen_AOI_2_Vegas_img1633.tif'
p316
aS'MUL-PanSharpen_AOI_2_Vegas_img622.tif'
p317
aS'MUL-PanSharpen_AOI_2_Vegas_img358.tif'
p318
aS'MUL-PanSharpen_AOI_2_Vegas_img1396.tif'
p319
aS'MUL-PanSharpen_AOI_2_Vegas_img870.tif'
p320
aS'MUL-PanSharpen_AOI_2_Vegas_img1109.tif'
p321
aS'MUL-PanSharpen_AOI_2_Vegas_img1307.tif'
p322
aS'MUL-PanSharpen_AOI_2_Vegas_img5.tif'
p323
aS'MUL-PanSharpen_AOI_2_Vegas_img832.tif'
p324
aS'MUL-PanSharpen_AOI_2_Vegas_img999.tif'
p325
aS'MUL-PanSharpen_AOI_2_Vegas_img1443.tif'
p326
aS'MUL-PanSharpen_AOI_2_Vegas_img33.tif'
p327
aS'MUL-PanSharpen_AOI_2_Vegas_img317.tif'
p328
aS'MUL-PanSharpen_AOI_2_Vegas_img795.tif'
p329
aS'MUL-PanSharpen_AOI_2_Vegas_img551.tif'
p330
aS'MUL-PanSharpen_AOI_2_Vegas_img1292.tif'
p331
aS'MUL-PanSharpen_AOI_2_Vegas_img1620.tif'
p332
aS'MUL-PanSharpen_AOI_2_Vegas_img1370.tif'
p333
aS'MUL-PanSharpen_AOI_2_Vegas_img182.tif'
p334
aS'MUL-PanSharpen_AOI_2_Vegas_img1214.tif'
p335
aS'MUL-PanSharpen_AOI_2_Vegas_img1488.tif'
p336
aS'MUL-PanSharpen_AOI_2_Vegas_img758.tif'
p337
aS'MUL-PanSharpen_AOI_2_Vegas_img1082.tif'
p338
aS'MUL-PanSharpen_AOI_2_Vegas_img513.tif'
p339
aS'MUL-PanSharpen_AOI_2_Vegas_img25.tif'
p340
aS'MUL-PanSharpen_AOI_2_Vegas_img27.tif'
p341
aS'MUL-PanSharpen_AOI_2_Vegas_img971.tif'
p342
aS'MUL-PanSharpen_AOI_2_Vegas_img963.tif'
p343
aS'MUL-PanSharpen_AOI_2_Vegas_img315.tif'
p344
aS'MUL-PanSharpen_AOI_2_Vegas_img422.tif'
p345
aS'MUL-PanSharpen_AOI_2_Vegas_img787.tif'
p346
aS'MUL-PanSharpen_AOI_2_Vegas_img699.tif'
p347
aS'MUL-PanSharpen_AOI_2_Vegas_img638.tif'
p348
aS'MUL-PanSharpen_AOI_2_Vegas_img445.tif'
p349
aS'MUL-PanSharpen_AOI_2_Vegas_img12.tif'
p350
aS'MUL-PanSharpen_AOI_2_Vegas_img1051.tif'
p351
aS'MUL-PanSharpen_AOI_2_Vegas_img689.tif'
p352
aS'MUL-PanSharpen_AOI_2_Vegas_img907.tif'
p353
aS'MUL-PanSharpen_AOI_2_Vegas_img1469.tif'
p354
aS'MUL-PanSharpen_AOI_2_Vegas_img1556.tif'
p355
aS'MUL-PanSharpen_AOI_2_Vegas_img598.tif'
p356
aS'MUL-PanSharpen_AOI_2_Vegas_img1325.tif'
p357
aS'MUL-PanSharpen_AOI_2_Vegas_img1646.tif'
p358
aS'MUL-PanSharpen_AOI_2_Vegas_img1461.tif'
p359
aS'MUL-PanSharpen_AOI_2_Vegas_img767.tif'
p360
aS'MUL-PanSharpen_AOI_2_Vegas_img478.tif'
p361
aS'MUL-PanSharpen_AOI_2_Vegas_img1104.tif'
p362
aS'MUL-PanSharpen_AOI_2_Vegas_img1091.tif'
p363
aS'MUL-PanSharpen_AOI_2_Vegas_img26.tif'
p364
aS'MUL-PanSharpen_AOI_2_Vegas_img919.tif'
p365
aS'MUL-PanSharpen_AOI_2_Vegas_img103.tif'
p366
aS'MUL-PanSharpen_AOI_2_Vegas_img555.tif'
p367
aS'MUL-PanSharpen_AOI_2_Vegas_img168.tif'
p368
aS'MUL-PanSharpen_AOI_2_Vegas_img952.tif'
p369
aS'MUL-PanSharpen_AOI_2_Vegas_img1145.tif'
p370
aS'MUL-PanSharpen_AOI_2_Vegas_img482.tif'
p371
aS'MUL-PanSharpen_AOI_2_Vegas_img1173.tif'
p372
aS'MUL-PanSharpen_AOI_2_Vegas_img1581.tif'
p373
aS'MUL-PanSharpen_AOI_2_Vegas_img22.tif'
p374
aS'MUL-PanSharpen_AOI_2_Vegas_img716.tif'
p375
aS'MUL-PanSharpen_AOI_2_Vegas_img644.tif'
p376
aS'MUL-PanSharpen_AOI_2_Vegas_img1293.tif'
p377
aS'MUL-PanSharpen_AOI_2_Vegas_img346.tif'
p378
aS'MUL-PanSharpen_AOI_2_Vegas_img239.tif'
p379
aS'MUL-PanSharpen_AOI_2_Vegas_img798.tif'
p380
aS'MUL-PanSharpen_AOI_2_Vegas_img961.tif'
p381
aS'MUL-PanSharpen_AOI_2_Vegas_img1584.tif'
p382
aS'MUL-PanSharpen_AOI_2_Vegas_img652.tif'
p383
aS'MUL-PanSharpen_AOI_2_Vegas_img1418.tif'
p384
aS'MUL-PanSharpen_AOI_2_Vegas_img813.tif'
p385
aS'MUL-PanSharpen_AOI_2_Vegas_img269.tif'
p386
aS'MUL-PanSharpen_AOI_2_Vegas_img471.tif'
p387
aS'MUL-PanSharpen_AOI_2_Vegas_img144.tif'
p388
aS'MUL-PanSharpen_AOI_2_Vegas_img640.tif'
p389
aS'MUL-PanSharpen_AOI_2_Vegas_img1081.tif'
p390
aS'MUL-PanSharpen_AOI_2_Vegas_img882.tif'
p391
aS'MUL-PanSharpen_AOI_2_Vegas_img68.tif'
p392
aS'MUL-PanSharpen_AOI_2_Vegas_img480.tif'
p393
aS'MUL-PanSharpen_AOI_2_Vegas_img189.tif'
p394
aS'MUL-PanSharpen_AOI_2_Vegas_img925.tif'
p395
aS'MUL-PanSharpen_AOI_2_Vegas_img818.tif'
p396
aS'MUL-PanSharpen_AOI_2_Vegas_img573.tif'
p397
aS'MUL-PanSharpen_AOI_2_Vegas_img1029.tif'
p398
aS'MUL-PanSharpen_AOI_2_Vegas_img294.tif'
p399
aS'MUL-PanSharpen_AOI_2_Vegas_img707.tif'
p400
aS'MUL-PanSharpen_AOI_2_Vegas_img806.tif'
p401
aS'MUL-PanSharpen_AOI_2_Vegas_img475.tif'
p402
aS'MUL-PanSharpen_AOI_2_Vegas_img197.tif'
p403
aS'MUL-PanSharpen_AOI_2_Vegas_img830.tif'
p404
aS'MUL-PanSharpen_AOI_2_Vegas_img1041.tif'
p405
aS'MUL-PanSharpen_AOI_2_Vegas_img362.tif'
p406
aS'MUL-PanSharpen_AOI_2_Vegas_img1587.tif'
p407
aS'MUL-PanSharpen_AOI_2_Vegas_img944.tif'
p408
aS'MUL-PanSharpen_AOI_2_Vegas_img1454.tif'
p409
aS'MUL-PanSharpen_AOI_2_Vegas_img77.tif'
p410
aS'MUL-PanSharpen_AOI_2_Vegas_img1299.tif'
p411
aS'MUL-PanSharpen_AOI_2_Vegas_img540.tif'
p412
aS'MUL-PanSharpen_AOI_2_Vegas_img155.tif'
p413
aS'MUL-PanSharpen_AOI_2_Vegas_img302.tif'
p414
aS'MUL-PanSharpen_AOI_2_Vegas_img734.tif'
p415
aS'MUL-PanSharpen_AOI_2_Vegas_img1064.tif'
p416
aS'MUL-PanSharpen_AOI_2_Vegas_img210.tif'
p417
aS'MUL-PanSharpen_AOI_2_Vegas_img1211.tif'
p418
aS'MUL-PanSharpen_AOI_2_Vegas_img457.tif'
p419
aS'MUL-PanSharpen_AOI_2_Vegas_img614.tif'
p420
aS'MUL-PanSharpen_AOI_2_Vegas_img148.tif'
p421
aS'MUL-PanSharpen_AOI_2_Vegas_img116.tif'
p422
aS'MUL-PanSharpen_AOI_2_Vegas_img1400.tif'
p423
aS'MUL-PanSharpen_AOI_2_Vegas_img1592.tif'
p424
aS'MUL-PanSharpen_AOI_2_Vegas_img1600.tif'
p425
aS'MUL-PanSharpen_AOI_2_Vegas_img1640.tif'
p426
aS'MUL-PanSharpen_AOI_2_Vegas_img1122.tif'
p427
aS'MUL-PanSharpen_AOI_2_Vegas_img418.tif'
p428
aS'MUL-PanSharpen_AOI_2_Vegas_img459.tif'
p429
aS'MUL-PanSharpen_AOI_2_Vegas_img1315.tif'
p430
aS'MUL-PanSharpen_AOI_2_Vegas_img1296.tif'
p431
aS'MUL-PanSharpen_AOI_2_Vegas_img1123.tif'
p432
aS'MUL-PanSharpen_AOI_2_Vegas_img233.tif'
p433
aS'MUL-PanSharpen_AOI_2_Vegas_img1231.tif'
p434
aS'MUL-PanSharpen_AOI_2_Vegas_img998.tif'
p435
aS'MUL-PanSharpen_AOI_2_Vegas_img279.tif'
p436
aS'MUL-PanSharpen_AOI_2_Vegas_img673.tif'
p437
aS'MUL-PanSharpen_AOI_2_Vegas_img1165.tif'
p438
aS'MUL-PanSharpen_AOI_2_Vegas_img1311.tif'
p439
aS'MUL-PanSharpen_AOI_2_Vegas_img962.tif'
p440
aS'MUL-PanSharpen_AOI_2_Vegas_img610.tif'
p441
aS'MUL-PanSharpen_AOI_2_Vegas_img391.tif'
p442
aS'MUL-PanSharpen_AOI_2_Vegas_img1234.tif'
p443
aS'MUL-PanSharpen_AOI_2_Vegas_img463.tif'
p444
aS'MUL-PanSharpen_AOI_2_Vegas_img698.tif'
p445
aS'MUL-PanSharpen_AOI_2_Vegas_img1332.tif'
p446
aS'MUL-PanSharpen_AOI_2_Vegas_img884.tif'
p447
aS'MUL-PanSharpen_AOI_2_Vegas_img545.tif'
p448
aS'MUL-PanSharpen_AOI_2_Vegas_img63.tif'
p449
aS'MUL-PanSharpen_AOI_2_Vegas_img557.tif'
p450
aS'MUL-PanSharpen_AOI_2_Vegas_img364.tif'
p451
aS'MUL-PanSharpen_AOI_2_Vegas_img842.tif'
p452
aS'MUL-PanSharpen_AOI_2_Vegas_img531.tif'
p453
aS'MUL-PanSharpen_AOI_2_Vegas_img20.tif'
p454
aS'MUL-PanSharpen_AOI_2_Vegas_img1058.tif'
p455
aS'MUL-PanSharpen_AOI_2_Vegas_img485.tif'
p456
aS'MUL-PanSharpen_AOI_2_Vegas_img59.tif'
p457
aS'MUL-PanSharpen_AOI_2_Vegas_img1023.tif'
p458
aS'MUL-PanSharpen_AOI_2_Vegas_img1055.tif'
p459
aS'MUL-PanSharpen_AOI_2_Vegas_img1491.tif'
p460
aS'MUL-PanSharpen_AOI_2_Vegas_img596.tif'
p461
aS'MUL-PanSharpen_AOI_2_Vegas_img436.tif'
p462
aS'MUL-PanSharpen_AOI_2_Vegas_img1399.tif'
p463
aS'MUL-PanSharpen_AOI_2_Vegas_img308.tif'
p464
aS'MUL-PanSharpen_AOI_2_Vegas_img1036.tif'
p465
aS'MUL-PanSharpen_AOI_2_Vegas_img1345.tif'
p466
aS'MUL-PanSharpen_AOI_2_Vegas_img295.tif'
p467
aS'MUL-PanSharpen_AOI_2_Vegas_img139.tif'
p468
aS'MUL-PanSharpen_AOI_2_Vegas_img437.tif'
p469
aS'MUL-PanSharpen_AOI_2_Vegas_img1244.tif'
p470
aS'MUL-PanSharpen_AOI_2_Vegas_img700.tif'
p471
aS'MUL-PanSharpen_AOI_2_Vegas_img271.tif'
p472
aS'MUL-PanSharpen_AOI_2_Vegas_img922.tif'
p473
aS'MUL-PanSharpen_AOI_2_Vegas_img7.tif'
p474
aS'MUL-PanSharpen_AOI_2_Vegas_img506.tif'
p475
aS'MUL-PanSharpen_AOI_2_Vegas_img851.tif'
p476
aS'MUL-PanSharpen_AOI_2_Vegas_img1456.tif'
p477
aS'MUL-PanSharpen_AOI_2_Vegas_img1390.tif'
p478
aS'MUL-PanSharpen_AOI_2_Vegas_img544.tif'
p479
aS'MUL-PanSharpen_AOI_2_Vegas_img17.tif'
p480
aS'MUL-PanSharpen_AOI_2_Vegas_img30.tif'
p481
aS'MUL-PanSharpen_AOI_2_Vegas_img939.tif'
p482
aS'MUL-PanSharpen_AOI_2_Vegas_img1125.tif'
p483
aS'MUL-PanSharpen_AOI_2_Vegas_img833.tif'
p484
aS'MUL-PanSharpen_AOI_2_Vegas_img349.tif'
p485
aS'MUL-PanSharpen_AOI_2_Vegas_img1097.tif'
p486
aS'MUL-PanSharpen_AOI_2_Vegas_img502.tif'
p487
aS'MUL-PanSharpen_AOI_2_Vegas_img390.tif'
p488
aS'MUL-PanSharpen_AOI_2_Vegas_img837.tif'
p489
aS'MUL-PanSharpen_AOI_2_Vegas_img1227.tif'
p490
aS'MUL-PanSharpen_AOI_2_Vegas_img250.tif'
p491
aS'MUL-PanSharpen_AOI_2_Vegas_img1289.tif'
p492
aS'MUL-PanSharpen_AOI_2_Vegas_img341.tif'
p493
aS'MUL-PanSharpen_AOI_2_Vegas_img1524.tif'
p494
aS'MUL-PanSharpen_AOI_2_Vegas_img788.tif'
p495
aS'MUL-PanSharpen_AOI_2_Vegas_img969.tif'
p496
aS'MUL-PanSharpen_AOI_2_Vegas_img1184.tif'
p497
aS'MUL-PanSharpen_AOI_2_Vegas_img1479.tif'
p498
aS'MUL-PanSharpen_AOI_2_Vegas_img95.tif'
p499
aS'MUL-PanSharpen_AOI_2_Vegas_img1634.tif'
p500
aS'MUL-PanSharpen_AOI_2_Vegas_img1615.tif'
p501
aS'MUL-PanSharpen_AOI_2_Vegas_img1232.tif'
p502
aS'MUL-PanSharpen_AOI_2_Vegas_img1338.tif'
p503
aS'MUL-PanSharpen_AOI_2_Vegas_img1093.tif'
p504
aS'MUL-PanSharpen_AOI_2_Vegas_img1201.tif'
p505
aS'MUL-PanSharpen_AOI_2_Vegas_img339.tif'
p506
aS'MUL-PanSharpen_AOI_2_Vegas_img736.tif'
p507
aS'MUL-PanSharpen_AOI_2_Vegas_img863.tif'
p508
aS'MUL-PanSharpen_AOI_2_Vegas_img1420.tif'
p509
aS'MUL-PanSharpen_AOI_2_Vegas_img1015.tif'
p510
aS'MUL-PanSharpen_AOI_2_Vegas_img816.tif'
p511
aS'MUL-PanSharpen_AOI_2_Vegas_img917.tif'
p512
aS'MUL-PanSharpen_AOI_2_Vegas_img1197.tif'
p513
aS'MUL-PanSharpen_AOI_2_Vegas_img1008.tif'
p514
aS'MUL-PanSharpen_AOI_2_Vegas_img619.tif'
p515
aS'MUL-PanSharpen_AOI_2_Vegas_img105.tif'
p516
aS'MUL-PanSharpen_AOI_2_Vegas_img1649.tif'
p517
aS'MUL-PanSharpen_AOI_2_Vegas_img1012.tif'
p518
aS'MUL-PanSharpen_AOI_2_Vegas_img768.tif'
p519
aS'MUL-PanSharpen_AOI_2_Vegas_img740.tif'
p520
aS'MUL-PanSharpen_AOI_2_Vegas_img1255.tif'
p521
aS'MUL-PanSharpen_AOI_2_Vegas_img1226.tif'
p522
aS'MUL-PanSharpen_AOI_2_Vegas_img589.tif'
p523
aS'MUL-PanSharpen_AOI_2_Vegas_img852.tif'
p524
aS'MUL-PanSharpen_AOI_2_Vegas_img1527.tif'
p525
aS'MUL-PanSharpen_AOI_2_Vegas_img1196.tif'
p526
aS'MUL-PanSharpen_AOI_2_Vegas_img659.tif'
p527
aS'MUL-PanSharpen_AOI_2_Vegas_img1579.tif'
p528
aS'MUL-PanSharpen_AOI_2_Vegas_img1038.tif'
p529
aS'MUL-PanSharpen_AOI_2_Vegas_img956.tif'
p530
aS'MUL-PanSharpen_AOI_2_Vegas_img1517.tif'
p531
aS'MUL-PanSharpen_AOI_2_Vegas_img499.tif'
p532
aS'MUL-PanSharpen_AOI_2_Vegas_img532.tif'
p533
aS'MUL-PanSharpen_AOI_2_Vegas_img1083.tif'
p534
aS'MUL-PanSharpen_AOI_2_Vegas_img1132.tif'
p535
aS'MUL-PanSharpen_AOI_2_Vegas_img1411.tif'
p536
aS'MUL-PanSharpen_AOI_2_Vegas_img809.tif'
p537
aS'MUL-PanSharpen_AOI_2_Vegas_img1421.tif'
p538
aS'MUL-PanSharpen_AOI_2_Vegas_img1306.tif'
p539
aS'MUL-PanSharpen_AOI_2_Vegas_img1438.tif'
p540
aS'MUL-PanSharpen_AOI_2_Vegas_img1075.tif'
p541
aS'MUL-PanSharpen_AOI_2_Vegas_img745.tif'
p542
aS'MUL-PanSharpen_AOI_2_Vegas_img1003.tif'
p543
aS'MUL-PanSharpen_AOI_2_Vegas_img927.tif'
p544
aS'MUL-PanSharpen_AOI_2_Vegas_img1.tif'
p545
aS'MUL-PanSharpen_AOI_2_Vegas_img1236.tif'
p546
aS'MUL-PanSharpen_AOI_2_Vegas_img126.tif'
p547
aS'MUL-PanSharpen_AOI_2_Vegas_img1066.tif'
p548
aS'MUL-PanSharpen_AOI_2_Vegas_img477.tif'
p549
aS'MUL-PanSharpen_AOI_2_Vegas_img677.tif'
p550
aS'MUL-PanSharpen_AOI_2_Vegas_img1314.tif'
p551
aS'MUL-PanSharpen_AOI_2_Vegas_img563.tif'
p552
aS'MUL-PanSharpen_AOI_2_Vegas_img1392.tif'
p553
aS'MUL-PanSharpen_AOI_2_Vegas_img1415.tif'
p554
aS'MUL-PanSharpen_AOI_2_Vegas_img1426.tif'
p555
aS'MUL-PanSharpen_AOI_2_Vegas_img1065.tif'
p556
aS'MUL-PanSharpen_AOI_2_Vegas_img902.tif'
p557
aS'MUL-PanSharpen_AOI_2_Vegas_img1203.tif'
p558
aS'MUL-PanSharpen_AOI_2_Vegas_img1107.tif'
p559
aS'MUL-PanSharpen_AOI_2_Vegas_img1439.tif'
p560
aS'MUL-PanSharpen_AOI_2_Vegas_img516.tif'
p561
aS'MUL-PanSharpen_AOI_2_Vegas_img986.tif'
p562
aS'MUL-PanSharpen_AOI_2_Vegas_img1172.tif'
p563
aS'MUL-PanSharpen_AOI_2_Vegas_img825.tif'
p564
aS'MUL-PanSharpen_AOI_2_Vegas_img328.tif'
p565
aS'MUL-PanSharpen_AOI_2_Vegas_img595.tif'
p566
aS'MUL-PanSharpen_AOI_2_Vegas_img408.tif'
p567
aS'MUL-PanSharpen_AOI_2_Vegas_img1180.tif'
p568
aS'MUL-PanSharpen_AOI_2_Vegas_img923.tif'
p569
aS'MUL-PanSharpen_AOI_2_Vegas_img1161.tif'
p570
aS'MUL-PanSharpen_AOI_2_Vegas_img305.tif'
p571
aS'MUL-PanSharpen_AOI_2_Vegas_img1346.tif'
p572
aS'MUL-PanSharpen_AOI_2_Vegas_img411.tif'
p573
aS'MUL-PanSharpen_AOI_2_Vegas_img115.tif'
p574
aS'MUL-PanSharpen_AOI_2_Vegas_img1160.tif'
p575
aS'MUL-PanSharpen_AOI_2_Vegas_img782.tif'
p576
aS'MUL-PanSharpen_AOI_2_Vegas_img1136.tif'
p577
aS'MUL-PanSharpen_AOI_2_Vegas_img1614.tif'
p578
aS'MUL-PanSharpen_AOI_2_Vegas_img1486.tif'
p579
aS'MUL-PanSharpen_AOI_2_Vegas_img1035.tif'
p580
aS'MUL-PanSharpen_AOI_2_Vegas_img191.tif'
p581
aS'MUL-PanSharpen_AOI_2_Vegas_img769.tif'
p582
aS'MUL-PanSharpen_AOI_2_Vegas_img1511.tif'
p583
aS'MUL-PanSharpen_AOI_2_Vegas_img228.tif'
p584
aS'MUL-PanSharpen_AOI_2_Vegas_img450.tif'
p585
aS'MUL-PanSharpen_AOI_2_Vegas_img514.tif'
p586
aS'MUL-PanSharpen_AOI_2_Vegas_img219.tif'
p587
aS'MUL-PanSharpen_AOI_2_Vegas_img726.tif'
p588
aS'MUL-PanSharpen_AOI_2_Vegas_img984.tif'
p589
aS'MUL-PanSharpen_AOI_2_Vegas_img209.tif'
p590
aS'MUL-PanSharpen_AOI_2_Vegas_img230.tif'
p591
aS'MUL-PanSharpen_AOI_2_Vegas_img385.tif'
p592
aS'MUL-PanSharpen_AOI_2_Vegas_img1290.tif'
p593
aS'MUL-PanSharpen_AOI_2_Vegas_img665.tif'
p594
aS'MUL-PanSharpen_AOI_2_Vegas_img344.tif'
p595
aS'MUL-PanSharpen_AOI_2_Vegas_img204.tif'
p596
aS'MUL-PanSharpen_AOI_2_Vegas_img844.tif'
p597
aS'MUL-PanSharpen_AOI_2_Vegas_img452.tif'
p598
aS'MUL-PanSharpen_AOI_2_Vegas_img1183.tif'
p599
aS'MUL-PanSharpen_AOI_2_Vegas_img1626.tif'
p600
aS'MUL-PanSharpen_AOI_2_Vegas_img100.tif'
p601
aS'MUL-PanSharpen_AOI_2_Vegas_img429.tif'
p602
aS'MUL-PanSharpen_AOI_2_Vegas_img1014.tif'
p603
aS'MUL-PanSharpen_AOI_2_Vegas_img143.tif'
p604
aS'MUL-PanSharpen_AOI_2_Vegas_img676.tif'
p605
aS'MUL-PanSharpen_AOI_2_Vegas_img1090.tif'
p606
aS'MUL-PanSharpen_AOI_2_Vegas_img979.tif'
p607
aS'MUL-PanSharpen_AOI_2_Vegas_img467.tif'
p608
aS'MUL-PanSharpen_AOI_2_Vegas_img1147.tif'
p609
aS'MUL-PanSharpen_AOI_2_Vegas_img369.tif'
p610
aS'MUL-PanSharpen_AOI_2_Vegas_img171.tif'
p611
aS'MUL-PanSharpen_AOI_2_Vegas_img270.tif'
p612
aS'MUL-PanSharpen_AOI_2_Vegas_img1498.tif'
p613
aS'MUL-PanSharpen_AOI_2_Vegas_img1434.tif'
p614
aS'MUL-PanSharpen_AOI_2_Vegas_img1380.tif'
p615
aS'MUL-PanSharpen_AOI_2_Vegas_img663.tif'
p616
aS'MUL-PanSharpen_AOI_2_Vegas_img487.tif'
p617
aS'MUL-PanSharpen_AOI_2_Vegas_img1061.tif'
p618
aS'MUL-PanSharpen_AOI_2_Vegas_img855.tif'
p619
aS'MUL-PanSharpen_AOI_2_Vegas_img831.tif'
p620
aS'MUL-PanSharpen_AOI_2_Vegas_img1401.tif'
p621
aS'MUL-PanSharpen_AOI_2_Vegas_img1140.tif'
p622
aS'MUL-PanSharpen_AOI_2_Vegas_img1034.tif'
p623
aS'MUL-PanSharpen_AOI_2_Vegas_img1181.tif'
p624
aS'MUL-PanSharpen_AOI_2_Vegas_img719.tif'
p625
aS'MUL-PanSharpen_AOI_2_Vegas_img1279.tif'
p626
aS'MUL-PanSharpen_AOI_2_Vegas_img1162.tif'
p627
aS'MUL-PanSharpen_AOI_2_Vegas_img213.tif'
p628
aS'MUL-PanSharpen_AOI_2_Vegas_img1241.tif'
p629
aS'MUL-PanSharpen_AOI_2_Vegas_img1496.tif'
p630
aS'MUL-PanSharpen_AOI_2_Vegas_img1268.tif'
p631
aS'MUL-PanSharpen_AOI_2_Vegas_img1199.tif'
p632
aS'MUL-PanSharpen_AOI_2_Vegas_img874.tif'
p633
aS'MUL-PanSharpen_AOI_2_Vegas_img1645.tif'
p634
aS'MUL-PanSharpen_AOI_2_Vegas_img35.tif'
p635
aS'MUL-PanSharpen_AOI_2_Vegas_img1575.tif'
p636
aS'MUL-PanSharpen_AOI_2_Vegas_img109.tif'
p637
aS'MUL-PanSharpen_AOI_2_Vegas_img725.tif'
p638
aS'MUL-PanSharpen_AOI_2_Vegas_img714.tif'
p639
aS'MUL-PanSharpen_AOI_2_Vegas_img1573.tif'
p640
aS'MUL-PanSharpen_AOI_2_Vegas_img432.tif'
p641
aS'MUL-PanSharpen_AOI_2_Vegas_img1356.tif'
p642
aS'MUL-PanSharpen_AOI_2_Vegas_img1442.tif'
p643
aS'MUL-PanSharpen_AOI_2_Vegas_img1553.tif'
p644
aS'MUL-PanSharpen_AOI_2_Vegas_img862.tif'
p645
aS'MUL-PanSharpen_AOI_2_Vegas_img1286.tif'
p646
aS'MUL-PanSharpen_AOI_2_Vegas_img548.tif'
p647
aS'MUL-PanSharpen_AOI_2_Vegas_img412.tif'
p648
aS'MUL-PanSharpen_AOI_2_Vegas_img1398.tif'
p649
aS'MUL-PanSharpen_AOI_2_Vegas_img669.tif'
p650
aS'MUL-PanSharpen_AOI_2_Vegas_img1126.tif'
p651
aS'MUL-PanSharpen_AOI_2_Vegas_img582.tif'
p652
aS'MUL-PanSharpen_AOI_2_Vegas_img697.tif'
p653
aS'MUL-PanSharpen_AOI_2_Vegas_img381.tif'
p654
aS'MUL-PanSharpen_AOI_2_Vegas_img617.tif'
p655
aS'MUL-PanSharpen_AOI_2_Vegas_img1250.tif'
p656
aS'MUL-PanSharpen_AOI_2_Vegas_img217.tif'
p657
aS'MUL-PanSharpen_AOI_2_Vegas_img470.tif'
p658
aS'MUL-PanSharpen_AOI_2_Vegas_img1590.tif'
p659
aS'MUL-PanSharpen_AOI_2_Vegas_img48.tif'
p660
aS'MUL-PanSharpen_AOI_2_Vegas_img1032.tif'
p661
aS'MUL-PanSharpen_AOI_2_Vegas_img387.tif'
p662
aS'MUL-PanSharpen_AOI_2_Vegas_img1062.tif'
p663
aS'MUL-PanSharpen_AOI_2_Vegas_img764.tif'
p664
aS'MUL-PanSharpen_AOI_2_Vegas_img584.tif'
p665
aS'MUL-PanSharpen_AOI_2_Vegas_img248.tif'
p666
aS'MUL-PanSharpen_AOI_2_Vegas_img1063.tif'
p667
aS'MUL-PanSharpen_AOI_2_Vegas_img282.tif'
p668
aS'MUL-PanSharpen_AOI_2_Vegas_img895.tif'
p669
aS'MUL-PanSharpen_AOI_2_Vegas_img1105.tif'
p670
aS'MUL-PanSharpen_AOI_2_Vegas_img1142.tif'
p671
aS'MUL-PanSharpen_AOI_2_Vegas_img549.tif'
p672
aS'MUL-PanSharpen_AOI_2_Vegas_img507.tif'
p673
aS'MUL-PanSharpen_AOI_2_Vegas_img1150.tif'
p674
aS'MUL-PanSharpen_AOI_2_Vegas_img710.tif'
p675
aS'MUL-PanSharpen_AOI_2_Vegas_img1159.tif'
p676
aS'MUL-PanSharpen_AOI_2_Vegas_img965.tif'
p677
aS'MUL-PanSharpen_AOI_2_Vegas_img266.tif'
p678
aS'MUL-PanSharpen_AOI_2_Vegas_img1529.tif'
p679
aS'MUL-PanSharpen_AOI_2_Vegas_img964.tif'
p680
aS'MUL-PanSharpen_AOI_2_Vegas_img283.tif'
p681
aS'MUL-PanSharpen_AOI_2_Vegas_img1146.tif'
p682
aS'MUL-PanSharpen_AOI_2_Vegas_img333.tif'
p683
aS'MUL-PanSharpen_AOI_2_Vegas_img648.tif'
p684
aS'MUL-PanSharpen_AOI_2_Vegas_img645.tif'
p685
aS'MUL-PanSharpen_AOI_2_Vegas_img1237.tif'
p686
aS'MUL-PanSharpen_AOI_2_Vegas_img1071.tif'
p687
aS'MUL-PanSharpen_AOI_2_Vegas_img1501.tif'
p688
aS'MUL-PanSharpen_AOI_2_Vegas_img608.tif'
p689
aS'MUL-PanSharpen_AOI_2_Vegas_img847.tif'
p690
aS'MUL-PanSharpen_AOI_2_Vegas_img900.tif'
p691
aS'MUL-PanSharpen_AOI_2_Vegas_img78.tif'
p692
aS'MUL-PanSharpen_AOI_2_Vegas_img301.tif'
p693
aS'MUL-PanSharpen_AOI_2_Vegas_img174.tif'
p694
aS'MUL-PanSharpen_AOI_2_Vegas_img55.tif'
p695
aS'MUL-PanSharpen_AOI_2_Vegas_img124.tif'
p696
aS'MUL-PanSharpen_AOI_2_Vegas_img312.tif'
p697
aS'MUL-PanSharpen_AOI_2_Vegas_img711.tif'
p698
aS'MUL-PanSharpen_AOI_2_Vegas_img425.tif'
p699
aS'MUL-PanSharpen_AOI_2_Vegas_img1609.tif'
p700
aS'MUL-PanSharpen_AOI_2_Vegas_img739.tif'
p701
aS'MUL-PanSharpen_AOI_2_Vegas_img1328.tif'
p702
aS'MUL-PanSharpen_AOI_2_Vegas_img322.tif'
p703
aS'MUL-PanSharpen_AOI_2_Vegas_img909.tif'
p704
aS'MUL-PanSharpen_AOI_2_Vegas_img104.tif'
p705
aS'MUL-PanSharpen_AOI_2_Vegas_img1541.tif'
p706
aS'MUL-PanSharpen_AOI_2_Vegas_img1638.tif'
p707
aS'MUL-PanSharpen_AOI_2_Vegas_img256.tif'
p708
aS'MUL-PanSharpen_AOI_2_Vegas_img1177.tif'
p709
aS'MUL-PanSharpen_AOI_2_Vegas_img934.tif'
p710
aS'MUL-PanSharpen_AOI_2_Vegas_img1513.tif'
p711
aS'MUL-PanSharpen_AOI_2_Vegas_img1272.tif'
p712
aS'MUL-PanSharpen_AOI_2_Vegas_img1303.tif'
p713
aS'MUL-PanSharpen_AOI_2_Vegas_img954.tif'
p714
aS'MUL-PanSharpen_AOI_2_Vegas_img1417.tif'
p715
aS'MUL-PanSharpen_AOI_2_Vegas_img205.tif'
p716
aS'MUL-PanSharpen_AOI_2_Vegas_img50.tif'
p717
aS'MUL-PanSharpen_AOI_2_Vegas_img29.tif'
p718
aS'MUL-PanSharpen_AOI_2_Vegas_img1190.tif'
p719
aS'MUL-PanSharpen_AOI_2_Vegas_img1262.tif'
p720
aS'MUL-PanSharpen_AOI_2_Vegas_img426.tif'
p721
aS'MUL-PanSharpen_AOI_2_Vegas_img1235.tif'
p722
aS'MUL-PanSharpen_AOI_2_Vegas_img1516.tif'
p723
aS'MUL-PanSharpen_AOI_2_Vegas_img1565.tif'
p724
aS'MUL-PanSharpen_AOI_2_Vegas_img164.tif'
p725
aS'MUL-PanSharpen_AOI_2_Vegas_img238.tif'
p726
aS'MUL-PanSharpen_AOI_2_Vegas_img1409.tif'
p727
aS'MUL-PanSharpen_AOI_2_Vegas_img1542.tif'
p728
aS'MUL-PanSharpen_AOI_2_Vegas_img330.tif'
p729
aS'MUL-PanSharpen_AOI_2_Vegas_img973.tif'
p730
aS'MUL-PanSharpen_AOI_2_Vegas_img836.tif'
p731
aS'MUL-PanSharpen_AOI_2_Vegas_img1295.tif'
p732
aS'MUL-PanSharpen_AOI_2_Vegas_img898.tif'
p733
aS'MUL-PanSharpen_AOI_2_Vegas_img1602.tif'
p734
aS'MUL-PanSharpen_AOI_2_Vegas_img1298.tif'
p735
aS'MUL-PanSharpen_AOI_2_Vegas_img1460.tif'
p736
aS'MUL-PanSharpen_AOI_2_Vegas_img1413.tif'
p737
aS'MUL-PanSharpen_AOI_2_Vegas_img983.tif'
p738
aS'MUL-PanSharpen_AOI_2_Vegas_img289.tif'
p739
aS'MUL-PanSharpen_AOI_2_Vegas_img417.tif'
p740
aS'MUL-PanSharpen_AOI_2_Vegas_img1118.tif'
p741
aS'MUL-PanSharpen_AOI_2_Vegas_img731.tif'
p742
aS'MUL-PanSharpen_AOI_2_Vegas_img572.tif'
p743
aS'MUL-PanSharpen_AOI_2_Vegas_img2.tif'
p744
aS'MUL-PanSharpen_AOI_2_Vegas_img903.tif'
p745
aS'MUL-PanSharpen_AOI_2_Vegas_img263.tif'
p746
aS'MUL-PanSharpen_AOI_2_Vegas_img1260.tif'
p747
aS'MUL-PanSharpen_AOI_2_Vegas_img1251.tif'
p748
aS'MUL-PanSharpen_AOI_2_Vegas_img1603.tif'
p749
aS'MUL-PanSharpen_AOI_2_Vegas_img162.tif'
p750
aS'MUL-PanSharpen_AOI_2_Vegas_img108.tif'
p751
aS'MUL-PanSharpen_AOI_2_Vegas_img530.tif'
p752
aS'MUL-PanSharpen_AOI_2_Vegas_img1275.tif'
p753
aS'MUL-PanSharpen_AOI_2_Vegas_img160.tif'
p754
aS'MUL-PanSharpen_AOI_2_Vegas_img292.tif'
p755
aS'MUL-PanSharpen_AOI_2_Vegas_img1106.tif'
p756
aS'MUL-PanSharpen_AOI_2_Vegas_img1383.tif'
p757
aS'MUL-PanSharpen_AOI_2_Vegas_img580.tif'
p758
aS'MUL-PanSharpen_AOI_2_Vegas_img728.tif'
p759
aS'MUL-PanSharpen_AOI_2_Vegas_img841.tif'
p760
aS'MUL-PanSharpen_AOI_2_Vegas_img1642.tif'
p761
aS'MUL-PanSharpen_AOI_2_Vegas_img327.tif'
p762
aS'MUL-PanSharpen_AOI_2_Vegas_img771.tif'
p763
aS'MUL-PanSharpen_AOI_2_Vegas_img1047.tif'
p764
aS'MUL-PanSharpen_AOI_2_Vegas_img1382.tif'
p765
aS'MUL-PanSharpen_AOI_2_Vegas_img515.tif'
p766
aS'MUL-PanSharpen_AOI_2_Vegas_img371.tif'
p767
aS'MUL-PanSharpen_AOI_2_Vegas_img355.tif'
p768
aS'MUL-PanSharpen_AOI_2_Vegas_img1589.tif'
p769
aS'MUL-PanSharpen_AOI_2_Vegas_img1536.tif'
p770
aS'MUL-PanSharpen_AOI_2_Vegas_img1457.tif'
p771
aS'MUL-PanSharpen_AOI_2_Vegas_img74.tif'
p772
aS'MUL-PanSharpen_AOI_2_Vegas_img674.tif'
p773
aS'MUL-PanSharpen_AOI_2_Vegas_img316.tif'
p774
aS'MUL-PanSharpen_AOI_2_Vegas_img1020.tif'
p775
aS'MUL-PanSharpen_AOI_2_Vegas_img501.tif'
p776
aS'MUL-PanSharpen_AOI_2_Vegas_img997.tif'
p777
aS'MUL-PanSharpen_AOI_2_Vegas_img957.tif'
p778
aS'MUL-PanSharpen_AOI_2_Vegas_img1372.tif'
p779
aS'MUL-PanSharpen_AOI_2_Vegas_img1054.tif'
p780
aS'MUL-PanSharpen_AOI_2_Vegas_img1612.tif'
p781
aS'MUL-PanSharpen_AOI_2_Vegas_img494.tif'
p782
aS'MUL-PanSharpen_AOI_2_Vegas_img1339.tif'
p783
aS'MUL-PanSharpen_AOI_2_Vegas_img356.tif'
p784
aS'MUL-PanSharpen_AOI_2_Vegas_img732.tif'
p785
aS'MUL-PanSharpen_AOI_2_Vegas_img56.tif'
p786
aS'MUL-PanSharpen_AOI_2_Vegas_img881.tif'
p787
aS'MUL-PanSharpen_AOI_2_Vegas_img1608.tif'
p788
aS'MUL-PanSharpen_AOI_2_Vegas_img1018.tif'
p789
aS'MUL-PanSharpen_AOI_2_Vegas_img352.tif'
p790
aS'MUL-PanSharpen_AOI_2_Vegas_img560.tif'
p791
aS'MUL-PanSharpen_AOI_2_Vegas_img65.tif'
p792
aS'MUL-PanSharpen_AOI_2_Vegas_img1570.tif'
p793
aS'MUL-PanSharpen_AOI_2_Vegas_img293.tif'
p794
aS'MUL-PanSharpen_AOI_2_Vegas_img1077.tif'
p795
aS'MUL-PanSharpen_AOI_2_Vegas_img1033.tif'
p796
aS'MUL-PanSharpen_AOI_2_Vegas_img650.tif'
p797
aS'MUL-PanSharpen_AOI_2_Vegas_img319.tif'
p798
aS'MUL-PanSharpen_AOI_2_Vegas_img846.tif'
p799
aS'MUL-PanSharpen_AOI_2_Vegas_img655.tif'
p800
aS'MUL-PanSharpen_AOI_2_Vegas_img950.tif'
p801
aS'MUL-PanSharpen_AOI_2_Vegas_img776.tif'
p802
aS'MUL-PanSharpen_AOI_2_Vegas_img807.tif'
p803
aS'MUL-PanSharpen_AOI_2_Vegas_img1564.tif'
p804
aS'MUL-PanSharpen_AOI_2_Vegas_img521.tif'
p805
aS'MUL-PanSharpen_AOI_2_Vegas_img1619.tif'
p806
aS'MUL-PanSharpen_AOI_2_Vegas_img407.tif'
p807
aS'MUL-PanSharpen_AOI_2_Vegas_img89.tif'
p808
aS'MUL-PanSharpen_AOI_2_Vegas_img117.tif'
p809
aS'MUL-PanSharpen_AOI_2_Vegas_img1080.tif'
p810
aS'MUL-PanSharpen_AOI_2_Vegas_img1116.tif'
p811
aS'MUL-PanSharpen_AOI_2_Vegas_img274.tif'
p812
aS'MUL-PanSharpen_AOI_2_Vegas_img1209.tif'
p813
aS'MUL-PanSharpen_AOI_2_Vegas_img897.tif'
p814
aS'MUL-PanSharpen_AOI_2_Vegas_img363.tif'
p815
aS'MUL-PanSharpen_AOI_2_Vegas_img39.tif'
p816
aS'MUL-PanSharpen_AOI_2_Vegas_img178.tif'
p817
aS'MUL-PanSharpen_AOI_2_Vegas_img365.tif'
p818
aS'MUL-PanSharpen_AOI_2_Vegas_img94.tif'
p819
aS'MUL-PanSharpen_AOI_2_Vegas_img288.tif'
p820
aS'MUL-PanSharpen_AOI_2_Vegas_img1525.tif'
p821
aS'MUL-PanSharpen_AOI_2_Vegas_img396.tif'
p822
aS'MUL-PanSharpen_AOI_2_Vegas_img1485.tif'
p823
aS'MUL-PanSharpen_AOI_2_Vegas_img1466.tif'
p824
aS'MUL-PanSharpen_AOI_2_Vegas_img1637.tif'
p825
aS'MUL-PanSharpen_AOI_2_Vegas_img194.tif'
p826
aS'MUL-PanSharpen_AOI_2_Vegas_img1515.tif'
p827
aS'MUL-PanSharpen_AOI_2_Vegas_img1410.tif'
p828
aS'MUL-PanSharpen_AOI_2_Vegas_img811.tif'
p829
aS'MUL-PanSharpen_AOI_2_Vegas_img1001.tif'
p830
aS'MUL-PanSharpen_AOI_2_Vegas_img1037.tif'
p831
aS'MUL-PanSharpen_AOI_2_Vegas_img1185.tif'
p832
aS'MUL-PanSharpen_AOI_2_Vegas_img737.tif'
p833
aS'MUL-PanSharpen_AOI_2_Vegas_img704.tif'
p834
aS'MUL-PanSharpen_AOI_2_Vegas_img222.tif'
p835
aS'MUL-PanSharpen_AOI_2_Vegas_img576.tif'
p836
aS'MUL-PanSharpen_AOI_2_Vegas_img1393.tif'
p837
aS'MUL-PanSharpen_AOI_2_Vegas_img985.tif'
p838
aS'MUL-PanSharpen_AOI_2_Vegas_img848.tif'
p839
aS'MUL-PanSharpen_AOI_2_Vegas_img1505.tif'
p840
aS'MUL-PanSharpen_AOI_2_Vegas_img401.tif'
p841
aS'MUL-PanSharpen_AOI_2_Vegas_img357.tif'
p842
aS'MUL-PanSharpen_AOI_2_Vegas_img1304.tif'
p843
aS'MUL-PanSharpen_AOI_2_Vegas_img794.tif'
p844
aS'MUL-PanSharpen_AOI_2_Vegas_img1360.tif'
p845
aS'MUL-PanSharpen_AOI_2_Vegas_img623.tif'
p846
aS'MUL-PanSharpen_AOI_2_Vegas_img510.tif'
p847
aS'MUL-PanSharpen_AOI_2_Vegas_img183.tif'
p848
aS'MUL-PanSharpen_AOI_2_Vegas_img38.tif'
p849
aS'MUL-PanSharpen_AOI_2_Vegas_img937.tif'
p850
aS'MUL-PanSharpen_AOI_2_Vegas_img626.tif'
p851
aS'MUL-PanSharpen_AOI_2_Vegas_img503.tif'
p852
aS'MUL-PanSharpen_AOI_2_Vegas_img759.tif'
p853
aS'MUL-PanSharpen_AOI_2_Vegas_img654.tif'
p854
aS'MUL-PanSharpen_AOI_2_Vegas_img1557.tif'
p855
aS'MUL-PanSharpen_AOI_2_Vegas_img577.tif'
p856
aS'MUL-PanSharpen_AOI_2_Vegas_img1030.tif'
p857
aS'MUL-PanSharpen_AOI_2_Vegas_img574.tif'
p858
aS'MUL-PanSharpen_AOI_2_Vegas_img332.tif'
p859
aS'MUL-PanSharpen_AOI_2_Vegas_img442.tif'
p860
aS'MUL-PanSharpen_AOI_2_Vegas_img252.tif'
p861
aS'MUL-PanSharpen_AOI_2_Vegas_img1100.tif'
p862
aS'MUL-PanSharpen_AOI_2_Vegas_img587.tif'
p863
aS'MUL-PanSharpen_AOI_2_Vegas_img211.tif'
p864
aS'MUL-PanSharpen_AOI_2_Vegas_img80.tif'
p865
aS'MUL-PanSharpen_AOI_2_Vegas_img883.tif'
p866
aS'MUL-PanSharpen_AOI_2_Vegas_img1534.tif'
p867
aS'MUL-PanSharpen_AOI_2_Vegas_img1111.tif'
p868
aS'MUL-PanSharpen_AOI_2_Vegas_img1113.tif'
p869
aS'MUL-PanSharpen_AOI_2_Vegas_img1128.tif'
p870
aS'MUL-PanSharpen_AOI_2_Vegas_img4.tif'
p871
aS'MUL-PanSharpen_AOI_2_Vegas_img259.tif'
p872
aS'MUL-PanSharpen_AOI_2_Vegas_img1329.tif'
p873
aS'MUL-PanSharpen_AOI_2_Vegas_img166.tif'
p874
aS'MUL-PanSharpen_AOI_2_Vegas_img1384.tif'
p875
aS'MUL-PanSharpen_AOI_2_Vegas_img995.tif'
p876
aS'MUL-PanSharpen_AOI_2_Vegas_img1545.tif'
p877
aS'MUL-PanSharpen_AOI_2_Vegas_img1253.tif'
p878
aS'MUL-PanSharpen_AOI_2_Vegas_img824.tif'
p879
aS'MUL-PanSharpen_AOI_2_Vegas_img88.tif'
p880
aS'MUL-PanSharpen_AOI_2_Vegas_img1330.tif'
p881
aS'MUL-PanSharpen_AOI_2_Vegas_img536.tif'
p882
aS'MUL-PanSharpen_AOI_2_Vegas_img1604.tif'
p883
aS'MUL-PanSharpen_AOI_2_Vegas_img1308.tif'
p884
aS'MUL-PanSharpen_AOI_2_Vegas_img1577.tif'
p885
aS'MUL-PanSharpen_AOI_2_Vegas_img8.tif'
p886
aS'MUL-PanSharpen_AOI_2_Vegas_img738.tif'
p887
aS'MUL-PanSharpen_AOI_2_Vegas_img524.tif'
p888
aS'MUL-PanSharpen_AOI_2_Vegas_img75.tif'
p889
aS'MUL-PanSharpen_AOI_2_Vegas_img262.tif'
p890
aS'MUL-PanSharpen_AOI_2_Vegas_img323.tif'
p891
aS'MUL-PanSharpen_AOI_2_Vegas_img1521.tif'
p892
aS'MUL-PanSharpen_AOI_2_Vegas_img823.tif'
p893
aS'MUL-PanSharpen_AOI_2_Vegas_img1042.tif'
p894
aS'MUL-PanSharpen_AOI_2_Vegas_img1327.tif'
p895
aS'MUL-PanSharpen_AOI_2_Vegas_img314.tif'
p896
aS'MUL-PanSharpen_AOI_2_Vegas_img1359.tif'
p897
aS'MUL-PanSharpen_AOI_2_Vegas_img775.tif'
p898
aS'MUL-PanSharpen_AOI_2_Vegas_img1635.tif'
p899
aS'MUL-PanSharpen_AOI_2_Vegas_img583.tif'
p900
aS'MUL-PanSharpen_AOI_2_Vegas_img223.tif'
p901
aS'MUL-PanSharpen_AOI_2_Vegas_img943.tif'
p902
aS'MUL-PanSharpen_AOI_2_Vegas_img760.tif'
p903
aS'MUL-PanSharpen_AOI_2_Vegas_img1270.tif'
p904
aS'MUL-PanSharpen_AOI_2_Vegas_img612.tif'
p905
aS'MUL-PanSharpen_AOI_2_Vegas_img106.tif'
p906
aS'MUL-PanSharpen_AOI_2_Vegas_img803.tif'
p907
aS'MUL-PanSharpen_AOI_2_Vegas_img184.tif'
p908
aS'MUL-PanSharpen_AOI_2_Vegas_img165.tif'
p909
aS'MUL-PanSharpen_AOI_2_Vegas_img69.tif'
p910
aS'MUL-PanSharpen_AOI_2_Vegas_img1212.tif'
p911
aS'MUL-PanSharpen_AOI_2_Vegas_img1322.tif'
p912
aS'MUL-PanSharpen_AOI_2_Vegas_img709.tif'
p913
aS'MUL-PanSharpen_AOI_2_Vegas_img309.tif'
p914
aS'MUL-PanSharpen_AOI_2_Vegas_img76.tif'
p915
aS'MUL-PanSharpen_AOI_2_Vegas_img145.tif'
p916
aS'MUL-PanSharpen_AOI_2_Vegas_img28.tif'
p917
aS'MUL-PanSharpen_AOI_2_Vegas_img547.tif'
p918
aS'MUL-PanSharpen_AOI_2_Vegas_img1583.tif'
p919
aS'MUL-PanSharpen_AOI_2_Vegas_img520.tif'
p920
aS'MUL-PanSharpen_AOI_2_Vegas_img1648.tif'
p921
aS'MUL-PanSharpen_AOI_2_Vegas_img1613.tif'
p922
aS'MUL-PanSharpen_AOI_2_Vegas_img261.tif'
p923
aS'MUL-PanSharpen_AOI_2_Vegas_img81.tif'
p924
aS'MUL-PanSharpen_AOI_2_Vegas_img682.tif'
p925
aS'MUL-PanSharpen_AOI_2_Vegas_img1576.tif'
p926
aS'MUL-PanSharpen_AOI_2_Vegas_img325.tif'
p927
aS'MUL-PanSharpen_AOI_2_Vegas_img805.tif'
p928
aS'MUL-PanSharpen_AOI_2_Vegas_img198.tif'
p929
aS'MUL-PanSharpen_AOI_2_Vegas_img1403.tif'
p930
aS'MUL-PanSharpen_AOI_2_Vegas_img1591.tif'
p931
aS'MUL-PanSharpen_AOI_2_Vegas_img1277.tif'
p932
aS'MUL-PanSharpen_AOI_2_Vegas_img642.tif'
p933
aS'MUL-PanSharpen_AOI_2_Vegas_img1073.tif'
p934
aS'MUL-PanSharpen_AOI_2_Vegas_img113.tif'
p935
aS'MUL-PanSharpen_AOI_2_Vegas_img490.tif'
p936
aS'MUL-PanSharpen_AOI_2_Vegas_img172.tif'
p937
aS'MUL-PanSharpen_AOI_2_Vegas_img176.tif'
p938
aS'MUL-PanSharpen_AOI_2_Vegas_img1273.tif'
p939
aS'MUL-PanSharpen_AOI_2_Vegas_img866.tif'
p940
aS'MUL-PanSharpen_AOI_2_Vegas_img1636.tif'
p941
aS'MUL-PanSharpen_AOI_2_Vegas_img141.tif'
p942
aS'MUL-PanSharpen_AOI_2_Vegas_img47.tif'
p943
aS'MUL-PanSharpen_AOI_2_Vegas_img199.tif'
p944
aS'MUL-PanSharpen_AOI_2_Vegas_img912.tif'
p945
aS'MUL-PanSharpen_AOI_2_Vegas_img990.tif'
p946
aS'MUL-PanSharpen_AOI_2_Vegas_img892.tif'
p947
aS'MUL-PanSharpen_AOI_2_Vegas_img53.tif'
p948
aS'MUL-PanSharpen_AOI_2_Vegas_img121.tif'
p949
aS'MUL-PanSharpen_AOI_2_Vegas_img1506.tif'
p950
aS'MUL-PanSharpen_AOI_2_Vegas_img1588.tif'
p951
aS'MUL-PanSharpen_AOI_2_Vegas_img1229.tif'
p952
aS'MUL-PanSharpen_AOI_2_Vegas_img664.tif'
p953
aS'MUL-PanSharpen_AOI_2_Vegas_img435.tif'
p954
aS'MUL-PanSharpen_AOI_2_Vegas_img1520.tif'
p955
aS'MUL-PanSharpen_AOI_2_Vegas_img695.tif'
p956
aS'MUL-PanSharpen_AOI_2_Vegas_img1522.tif'
p957
aS'MUL-PanSharpen_AOI_2_Vegas_img1052.tif'
p958
aS'MUL-PanSharpen_AOI_2_Vegas_img1419.tif'
p959
aS'MUL-PanSharpen_AOI_2_Vegas_img1385.tif'
p960
aS'MUL-PanSharpen_AOI_2_Vegas_img810.tif'
p961
aS'MUL-PanSharpen_AOI_2_Vegas_img186.tif'
p962
aS'MUL-PanSharpen_AOI_2_Vegas_img1283.tif'
p963
aS'MUL-PanSharpen_AOI_2_Vegas_img1186.tif'
p964
aS'MUL-PanSharpen_AOI_2_Vegas_img565.tif'
p965
aS'MUL-PanSharpen_AOI_2_Vegas_img1155.tif'
p966
aS'MUL-PanSharpen_AOI_2_Vegas_img591.tif'
p967
aS'MUL-PanSharpen_AOI_2_Vegas_img1223.tif'
p968
aS'MUL-PanSharpen_AOI_2_Vegas_img1412.tif'
p969
aS'MUL-PanSharpen_AOI_2_Vegas_img1548.tif'
p970
aS'MUL-PanSharpen_AOI_2_Vegas_img616.tif'
p971
aS'MUL-PanSharpen_AOI_2_Vegas_img409.tif'
p972
aS'MUL-PanSharpen_AOI_2_Vegas_img280.tif'
p973
aS'MUL-PanSharpen_AOI_2_Vegas_img1367.tif'
p974
aS'MUL-PanSharpen_AOI_2_Vegas_img1377.tif'
p975
aS'MUL-PanSharpen_AOI_2_Vegas_img465.tif'
p976
aS'MUL-PanSharpen_AOI_2_Vegas_img1254.tif'
p977
aS'MUL-PanSharpen_AOI_2_Vegas_img1300.tif'
p978
aS'MUL-PanSharpen_AOI_2_Vegas_img491.tif'
p979
aS'MUL-PanSharpen_AOI_2_Vegas_img1221.tif'
p980
aS'MUL-PanSharpen_AOI_2_Vegas_img36.tif'
p981
aS'MUL-PanSharpen_AOI_2_Vegas_img1164.tif'
p982
aS'MUL-PanSharpen_AOI_2_Vegas_img212.tif'
p983
aS'MUL-PanSharpen_AOI_2_Vegas_img498.tif'
p984
aS'MUL-PanSharpen_AOI_2_Vegas_img1039.tif'
p985
aS'MUL-PanSharpen_AOI_2_Vegas_img451.tif'
p986
aS'MUL-PanSharpen_AOI_2_Vegas_img134.tif'
p987
aS'MUL-PanSharpen_AOI_2_Vegas_img635.tif'
p988
aS'MUL-PanSharpen_AOI_2_Vegas_img571.tif'
p989
a.